(dp0
S'kin_b'
p1
(lp2
cnumpy.core.multiarray
_reconstruct
p3
(cnumpy
ndarray
p4
(I0
tp5
S'b'
p6
tp7
Rp8
(I1
(tcnumpy
dtype
p9
(S'f8'
p10
I0
I1
tp11
Rp12
(I3
S'<'
p13
NNNI-1
I-1
I0
tp14
bI00
S'\x00\x00\x00\x00\x00\x00\x00\x00'
p15
tp16
bag3
(g4
(I0
tp17
g6
tp18
Rp19
(I1
(tg12
I00
S'\x00\x00\x00\x00\x00\x00\x00\x00'
p20
tp21
bag3
(g4
(I0
tp22
g6
tp23
Rp24
(I1
(tg12
I00
S'\x00\x00\x00\x00\x00\x00\x00\x00'
p25
tp26
bag3
(g4
(I0
tp27
g6
tp28
Rp29
(I1
(tg12
I00
S'\x9420\xd3\xb6"\xba>'
p30
tp31
bag3
(g4
(I0
tp32
g6
tp33
Rp34
(I1
(tg12
I00
S'\xf8\xcb@\xfa\xd2\xbd\xd8>'
p35
tp36
bag3
(g4
(I0
tp37
g6
tp38
Rp39
(I1
(tg12
I00
S"\x07\x00'\x07\x85{\xeb>"
p40
tp41
bag3
(g4
(I0
tp42
g6
tp43
Rp44
(I1
(tg12
I00
S'\x9f# \xca\x1d\xb5\xf8>'
p45
tp46
bag3
(g4
(I0
tp47
g6
tp48
Rp49
(I1
(tg12
I00
S'm\xe8\xb2\x80\x94\x18\x04?'
p50
tp51
bag3
(g4
(I0
tp52
g6
tp53
Rp54
(I1
(tg12
I00
S'\x91b\x19`\x1aF\x0f?'
p55
tp56
bag3
(g4
(I0
tp57
g6
tp58
Rp59
(I1
(tg12
I00
S'\x8cKz\x8e\x19\xa4\x1b?'
p60
tp61
bag3
(g4
(I0
tp62
g6
tp63
Rp64
(I1
(tg12
I00
S'\x8e\xe3\xf0\xa0u\xc9$?'
p65
tp66
bag3
(g4
(I0
tp67
g6
tp68
Rp69
(I1
(tg12
I00
S'C\xfeyv}U-?'
p70
tp71
bag3
(g4
(I0
tp72
g6
tp73
Rp74
(I1
(tg12
I00
S'\x8e\xbdTG,Z5?'
p75
tp76
bag3
(g4
(I0
tp77
g6
tp78
Rp79
(I1
(tg12
I00
S'\xe0V\xd6n\xe0PB?'
p80
tp81
bag3
(g4
(I0
tp82
g6
tp83
Rp84
(I1
(tg12
I00
S'K\x0f\x9b\xb1g\xadU?'
p85
tp86
bag3
(g4
(I0
tp87
g6
tp88
Rp89
(I1
(tg12
I00
S'\xcb\x1c\xa7\xd8\x1a\x83l?'
p90
tp91
bag3
(g4
(I0
tp92
g6
tp93
Rp94
(I1
(tg12
I00
S'&\xb5\x1e\\\xf1*\x81?'
p95
tp96
bag3
(g4
(I0
tp97
g6
tp98
Rp99
(I1
(tg12
I00
S'\xde&9\xb0ky\x91?'
p100
tp101
bag3
(g4
(I0
tp102
g6
tp103
Rp104
(I1
(tg12
I00
S'?\x80A\x86\x94\x02\x9f?'
p105
tp106
bag3
(g4
(I0
tp107
g6
tp108
Rp109
(I1
(tg12
I00
S"\xcf'\x8dL\xe4\xc2\xa7?"
p110
tp111
bag3
(g4
(I0
tp112
g6
tp113
Rp114
(I1
(tg12
I00
S'\xd4\x82\xaf\x82\xb0>\xb0?'
p115
tp116
bag3
(g4
(I0
tp117
g6
tp118
Rp119
(I1
(tg12
I00
S'_\x85(\x81\xfb\xa0\xb4?'
p120
tp121
bag3
(g4
(I0
tp122
g6
tp123
Rp124
(I1
(tg12
I00
S'\xa0\xe3\x95\xafZ\x1f\xb9?'
p125
tp126
bag3
(g4
(I0
tp127
g6
tp128
Rp129
(I1
(tg12
I00
S']\x87\xcaz\x96#\xbe?'
p130
tp131
bag3
(g4
(I0
tp132
g6
tp133
Rp134
(I1
(tg12
I00
S'\x83\xfb\xa8\xe0\xee\xcf\xc1?'
p135
tp136
bag3
(g4
(I0
tp137
g6
tp138
Rp139
(I1
(tg12
I00
S'\xb4#3\xf1\xc9f\xc4?'
p140
tp141
bag3
(g4
(I0
tp142
g6
tp143
Rp144
(I1
(tg12
I00
S'\xa0Z\xe9\x98\x12\xc2\xc6?'
p145
tp146
bag3
(g4
(I0
tp147
g6
tp148
Rp149
(I1
(tg12
I00
S'r\x92\xc1\x9f\xa0\xd9\xc8?'
p150
tp151
bag3
(g4
(I0
tp152
g6
tp153
Rp154
(I1
(tg12
I00
S'I&\xb5Z\xfc\xb2\xca?'
p155
tp156
bag3
(g4
(I0
tp157
g6
tp158
Rp159
(I1
(tg12
I00
S'\xd6fC\x82c\x7f\xcc?'
p160
tp161
bag3
(g4
(I0
tp162
g6
tp163
Rp164
(I1
(tg12
I00
S'\x1d\x87\x10\xfcy\x17\xce?'
p165
tp166
bag3
(g4
(I0
tp167
g6
tp168
Rp169
(I1
(tg12
I00
S'\x88\x83\xec\x1d\x99]\xcf?'
p170
tp171
bag3
(g4
(I0
tp172
g6
tp173
Rp174
(I1
(tg12
I00
S'\xff\x1b\t\x8f\xc0D\xd0?'
p175
tp176
bag3
(g4
(I0
tp177
g6
tp178
Rp179
(I1
(tg12
I00
S'\x08\x8dyB/\xc5\xd0?'
p180
tp181
bag3
(g4
(I0
tp182
g6
tp183
Rp184
(I1
(tg12
I00
S'uuE\x83 /\xd1?'
p185
tp186
bag3
(g4
(I0
tp187
g6
tp188
Rp189
(I1
(tg12
I00
S'\xad<\xad\xd4>\x85\xd1?'
p190
tp191
bag3
(g4
(I0
tp192
g6
tp193
Rp194
(I1
(tg12
I00
S'[\xd5\xb6m\xd6\xbe\xd1?'
p195
tp196
bag3
(g4
(I0
tp197
g6
tp198
Rp199
(I1
(tg12
I00
S'\xdc\x89{\x82\xe1\xef\xd1?'
p200
tp201
bag3
(g4
(I0
tp202
g6
tp203
Rp204
(I1
(tg12
I00
S'z\xf9xrd%\xd2?'
p205
tp206
bag3
(g4
(I0
tp207
g6
tp208
Rp209
(I1
(tg12
I00
S'\xb8\xf6x\x87\x92W\xd2?'
p210
tp211
bag3
(g4
(I0
tp212
g6
tp213
Rp214
(I1
(tg12
I00
S'\xf9\xc0\xbb\x87\xad\x94\xd2?'
p215
tp216
bag3
(g4
(I0
tp217
g6
tp218
Rp219
(I1
(tg12
I00
S'\xdc\xe4\xf7z\x0e\xd9\xd2?'
p220
tp221
bag3
(g4
(I0
tp222
g6
tp223
Rp224
(I1
(tg12
I00
S'\x87~\xef\x9f\x7f8\xd3?'
p225
tp226
bag3
(g4
(I0
tp227
g6
tp228
Rp229
(I1
(tg12
I00
S'\x8b8\x84h>\xb8\xd3?'
p230
tp231
bag3
(g4
(I0
tp232
g6
tp233
Rp234
(I1
(tg12
I00
S'P;?V]O\xd4?'
p235
tp236
bag3
(g4
(I0
tp237
g6
tp238
Rp239
(I1
(tg12
I00
S'\xf84\xcb\xfe!#\xd5?'
p240
tp241
bag3
(g4
(I0
tp242
g6
tp243
Rp244
(I1
(tg12
I00
S'\xe9\xf8\'V"6\xd6?'
p245
tp246
bag3
(g4
(I0
tp247
g6
tp248
Rp249
(I1
(tg12
I00
S'~\xa1zM\xef\xad\xd7?'
p250
tp251
bag3
(g4
(I0
tp252
g6
tp253
Rp254
(I1
(tg12
I00
S'\x94\\z/\x02\xe2\xd9?'
p255
tp256
bag3
(g4
(I0
tp257
g6
tp258
Rp259
(I1
(tg12
I00
S"\x1dy|b\xca'\xdd?"
p260
tp261
bag3
(g4
(I0
tp262
g6
tp263
Rp264
(I1
(tg12
I00
S'}\xfe5\xd0\xe7\xc3\xe0?'
p265
tp266
bag3
(g4
(I0
tp267
g6
tp268
Rp269
(I1
(tg12
I00
S'4<c&\xc5a\xe3?'
p270
tp271
bag3
(g4
(I0
tp272
g6
tp273
Rp274
(I1
(tg12
I00
S'1\xc3^\x1e\xd6M\xe6?'
p275
tp276
bag3
(g4
(I0
tp277
g6
tp278
Rp279
(I1
(tg12
I00
S'\x82\xdc\xc7\x9c\x00\xa6\xe9?'
p280
tp281
bag3
(g4
(I0
tp282
g6
tp283
Rp284
(I1
(tg12
I00
S'\x17\xf7W)*\xc1\xed?'
p285
tp286
bag3
(g4
(I0
tp287
g6
tp288
Rp289
(I1
(tg12
I00
S'\r\xc0\x8c\x8b\xad\xbe\xf1?'
p290
tp291
bag3
(g4
(I0
tp292
g6
tp293
Rp294
(I1
(tg12
I00
S'7\xe1\xd8H\xbd\xc8\xf5?'
p295
tp296
bag3
(g4
(I0
tp297
g6
tp298
Rp299
(I1
(tg12
I00
S"\x17\xd5'w\x84\xd9\xfa?"
p300
tp301
bag3
(g4
(I0
tp302
g6
tp303
Rp304
(I1
(tg12
I00
S'd\xc3=\xea\x0cV\x00@'
p305
tp306
bag3
(g4
(I0
tp307
g6
tp308
Rp309
(I1
(tg12
I00
S'\xad_Bk\x16|\x03@'
p310
tp311
bag3
(g4
(I0
tp312
g6
tp313
Rp314
(I1
(tg12
I00
S'4\xear_h\xbd\x06@'
p315
tp316
bag3
(g4
(I0
tp317
g6
tp318
Rp319
(I1
(tg12
I00
S'\xa4\xae\xa0\xd9\xf6Q\n@'
p320
tp321
bag3
(g4
(I0
tp322
g6
tp323
Rp324
(I1
(tg12
I00
S'\x07\xff\x997\xdf\xa1\x0e@'
p325
tp326
bag3
(g4
(I0
tp327
g6
tp328
Rp329
(I1
(tg12
I00
S'$|\x9e7\xd9\xf5\x11@'
p330
tp331
bag3
(g4
(I0
tp332
g6
tp333
Rp334
(I1
(tg12
I00
S'@,\xb5\x94x\x1f\x15@'
p335
tp336
bag3
(g4
(I0
tp337
g6
tp338
Rp339
(I1
(tg12
I00
S'vc\xbc43\x93\x18@'
p340
tp341
bag3
(g4
(I0
tp342
g6
tp343
Rp344
(I1
(tg12
I00
S'\xb8\xa3\x8d\x8f3\x1d\x1c@'
p345
tp346
bag3
(g4
(I0
tp347
g6
tp348
Rp349
(I1
(tg12
I00
S'8O\xaeKa\x8a\x1f@'
p350
tp351
bag3
(g4
(I0
tp352
g6
tp353
Rp354
(I1
(tg12
I00
S'\x95b\xa6\x8a\xc9W!@'
p355
tp356
bag3
(g4
(I0
tp357
g6
tp358
Rp359
(I1
(tg12
I00
S'B\xf4>\xdaB\xd9"@'
p360
tp361
bag3
(g4
(I0
tp362
g6
tp363
Rp364
(I1
(tg12
I00
S'\xee\xcd\x83\\\xfcU$@'
p365
tp366
bag3
(g4
(I0
tp367
g6
tp368
Rp369
(I1
(tg12
I00
S'\xb1\xa0x\x8a\xa0\xd4%@'
p370
tp371
bag3
(g4
(I0
tp372
g6
tp373
Rp374
(I1
(tg12
I00
S"N\xfa\xbc\xc0UV'@"
p375
tp376
bag3
(g4
(I0
tp377
g6
tp378
Rp379
(I1
(tg12
I00
S'\xf8\x8f\xbd\xa3~\xc4(@'
p380
tp381
bag3
(g4
(I0
tp382
g6
tp383
Rp384
(I1
(tg12
I00
S'\xdb\xc9\xff9\xce\x14*@'
p385
tp386
bag3
(g4
(I0
tp387
g6
tp388
Rp389
(I1
(tg12
I00
S'\x8e^\xa6\x82\xe5S+@'
p390
tp391
bag3
(g4
(I0
tp392
g6
tp393
Rp394
(I1
(tg12
I00
S'4\x97.g\x02k,@'
p395
tp396
bag3
(g4
(I0
tp397
g6
tp398
Rp399
(I1
(tg12
I00
S'\n\xd1\xe7\x97(Z-@'
p400
tp401
bag3
(g4
(I0
tp402
g6
tp403
Rp404
(I1
(tg12
I00
S'(\x0bh\xfb\x8d0.@'
p405
tp406
bag3
(g4
(I0
tp407
g6
tp408
Rp409
(I1
(tg12
I00
S'\xc0\xef.\xe2\x95\xfb.@'
p410
tp411
bag3
(g4
(I0
tp412
g6
tp413
Rp414
(I1
(tg12
I00
S'\x9fgF\xcb\x16\xcb/@'
p415
tp416
bag3
(g4
(I0
tp417
g6
tp418
Rp419
(I1
(tg12
I00
S'\xda\xbe\x11n\xeaE0@'
p420
tp421
bag3
(g4
(I0
tp422
g6
tp423
Rp424
(I1
(tg12
I00
S'\xd3R\x04\xe7\xf9\x9e0@'
p425
tp426
bag3
(g4
(I0
tp427
g6
tp428
Rp429
(I1
(tg12
I00
S'\xfd\x00\xc6\x86\xa8\xf40@'
p430
tp431
bag3
(g4
(I0
tp432
g6
tp433
Rp434
(I1
(tg12
I00
S'SW\x94\x1d,L1@'
p435
tp436
bag3
(g4
(I0
tp437
g6
tp438
Rp439
(I1
(tg12
I00
S'\xa9\xf6\x10\xa6E\xb61@'
p440
tp441
bag3
(g4
(I0
tp442
g6
tp443
Rp444
(I1
(tg12
I00
S'a\x9a\x02\xc5\xebG2@'
p445
tp446
bag3
(g4
(I0
tp447
g6
tp448
Rp449
(I1
(tg12
I00
S'\x8d\xab\xdb[\x96\x1a3@'
p450
tp451
bag3
(g4
(I0
tp452
g6
tp453
Rp454
(I1
(tg12
I00
S'\r@\xa9L\xce44@'
p455
tp456
bag3
(g4
(I0
tp457
g6
tp458
Rp459
(I1
(tg12
I00
S"7'\n\x91\xd7v5@"
p460
tp461
bag3
(g4
(I0
tp462
g6
tp463
Rp464
(I1
(tg12
I00
S'\x8cqz\xc7\xcc\xb76@'
p465
tp466
bag3
(g4
(I0
tp467
g6
tp468
Rp469
(I1
(tg12
I00
S'Qf\xebeo\xe57@'
p470
tp471
bag3
(g4
(I0
tp472
g6
tp473
Rp474
(I1
(tg12
I00
S'+\x1a\x97Y1\xf88@'
p475
tp476
bag3
(g4
(I0
tp477
g6
tp478
Rp479
(I1
(tg12
I00
S'\xcd\xa9\xc7\x06\xc5\xeb9@'
p480
tp481
bag3
(g4
(I0
tp482
g6
tp483
Rp484
(I1
(tg12
I00
S'\x0b\xa8\x86j\xe5\xcd:@'
p485
tp486
bag3
(g4
(I0
tp487
g6
tp488
Rp489
(I1
(tg12
I00
S'\xb9\x96r\x00\xad\xad;@'
p490
tp491
bag3
(g4
(I0
tp492
g6
tp493
Rp494
(I1
(tg12
I00
S'\x904_\xf1/\x8d<@'
p495
tp496
bag3
(g4
(I0
tp497
g6
tp498
Rp499
(I1
(tg12
I00
S'\xf8\x16\x1e\xd6\x14]=@'
p500
tp501
bag3
(g4
(I0
tp502
g6
tp503
Rp504
(I1
(tg12
I00
S'\n\xc0zcZ\n>@'
p505
tp506
bag3
(g4
(I0
tp507
g6
tp508
Rp509
(I1
(tg12
I00
S'!L`\xab\xa9\xa1>@'
p510
tp511
bag3
(g4
(I0
tp512
g6
tp513
Rp514
(I1
(tg12
I00
S'A^\xca\xd6\xd5+?@'
p515
tp516
bag3
(g4
(I0
tp517
g6
tp518
Rp519
(I1
(tg12
I00
S"\xfe\x96't\xcd\xac?@"
p520
tp521
bag3
(g4
(I0
tp522
g6
tp523
Rp524
(I1
(tg12
I00
S'\xd0\xd3K)_\x15@@'
p525
tp526
bag3
(g4
(I0
tp527
g6
tp528
Rp529
(I1
(tg12
I00
S'\x13K\x15\xc9\xcdP@@'
p530
tp531
bag3
(g4
(I0
tp532
g6
tp533
Rp534
(I1
(tg12
I00
S'\x98\x02\xc6\x8c \x8a@@'
p535
tp536
bag3
(g4
(I0
tp537
g6
tp538
Rp539
(I1
(tg12
I00
S'\xd5Jm\xa4\xb7\xbf@@'
p540
tp541
bag3
(g4
(I0
tp542
g6
tp543
Rp544
(I1
(tg12
I00
S'\xb9$M*\x9d\xef@@'
p545
tp546
bag3
(g4
(I0
tp547
g6
tp548
Rp549
(I1
(tg12
I00
S'\n\xf1i\x9aE\x1eA@'
p550
tp551
bag3
(g4
(I0
tp552
g6
tp553
Rp554
(I1
(tg12
I00
S'\xf1c4rALA@'
p555
tp556
bag3
(g4
(I0
tp557
g6
tp558
Rp559
(I1
(tg12
I00
S'\xbb\xe7\xc8s\xf2yA@'
p560
tp561
bag3
(g4
(I0
tp562
g6
tp563
Rp564
(I1
(tg12
I00
S'\xcb\xf7\xa8\x87\xdb\xa8A@'
p565
tp566
bag3
(g4
(I0
tp567
g6
tp568
Rp569
(I1
(tg12
I00
S'\xaa\x8d\x88\xaa\x90\xdcA@'
p570
tp571
bag3
(g4
(I0
tp572
g6
tp573
Rp574
(I1
(tg12
I00
S'\x11\xff\x80in\x1dB@'
p575
tp576
bag3
(g4
(I0
tp577
g6
tp578
Rp579
(I1
(tg12
I00
S'\xbf_\xa6\xeb\xc7gB@'
p580
tp581
bag3
(g4
(I0
tp582
g6
tp583
Rp584
(I1
(tg12
I00
S'\x7f9H\xee\xe1\xb0B@'
p585
tp586
bag3
(g4
(I0
tp587
g6
tp588
Rp589
(I1
(tg12
I00
S'\xf2\x03\xfd\xf3W\xf0B@'
p590
tp591
bag3
(g4
(I0
tp592
g6
tp593
Rp594
(I1
(tg12
I00
S'\x94)\x98\xbe\x1e%C@'
p595
tp596
bag3
(g4
(I0
tp597
g6
tp598
Rp599
(I1
(tg12
I00
S'}!O\xb5\x10OC@'
p600
tp601
bag3
(g4
(I0
tp602
g6
tp603
Rp604
(I1
(tg12
I00
S"\x8b'\x1f\x08\xfb{C@"
p605
tp606
bag3
(g4
(I0
tp607
g6
tp608
Rp609
(I1
(tg12
I00
S'\xfe&^\xff\x8d\xb2C@'
p610
tp611
bag3
(g4
(I0
tp612
g6
tp613
Rp614
(I1
(tg12
I00
S'\xa0\xd9\xacz\x99\xf0C@'
p615
tp616
bag3
(g4
(I0
tp617
g6
tp618
Rp619
(I1
(tg12
I00
S'\xe0\xfe\xc1i\xa5*D@'
p620
tp621
bag3
(g4
(I0
tp622
g6
tp623
Rp624
(I1
(tg12
I00
S'\xd6tJ\xd5\x12XD@'
p625
tp626
bag3
(g4
(I0
tp627
g6
tp628
Rp629
(I1
(tg12
I00
S'X\xee\x19\xcbuzD@'
p630
tp631
bag3
(g4
(I0
tp632
g6
tp633
Rp634
(I1
(tg12
I00
S'\x88\xfc<\x7f\x16\x99D@'
p635
tp636
bag3
(g4
(I0
tp637
g6
tp638
Rp639
(I1
(tg12
I00
S'\xccd\xff{\xc9\xbbD@'
p640
tp641
bag3
(g4
(I0
tp642
g6
tp643
Rp644
(I1
(tg12
I00
S'\xc0\xbdp\xd6\xc4\xe7D@'
p645
tp646
bag3
(g4
(I0
tp647
g6
tp648
Rp649
(I1
(tg12
I00
S't\x1e\xf9\xa2E\x1bE@'
p650
tp651
bag3
(g4
(I0
tp652
g6
tp653
Rp654
(I1
(tg12
I00
S'Dd\x84!:RE@'
p655
tp656
bag3
(g4
(I0
tp657
g6
tp658
Rp659
(I1
(tg12
I00
S':\x8d\xfa\x14\xb3\x88E@'
p660
tp661
bag3
(g4
(I0
tp662
g6
tp663
Rp664
(I1
(tg12
I00
S'\xda\x9d\x0c\x83E\xc0E@'
p665
tp666
bag3
(g4
(I0
tp667
g6
tp668
Rp669
(I1
(tg12
I00
S'\xc9\x05s\xc9\xee\xf8E@'
p670
tp671
bag3
(g4
(I0
tp672
g6
tp673
Rp674
(I1
(tg12
I00
S'\xe4nuA\x887F@'
p675
tp676
bag3
(g4
(I0
tp677
g6
tp678
Rp679
(I1
(tg12
I00
S'\x96\xcf\xc8\x1b\x9a}F@'
p680
tp681
bag3
(g4
(I0
tp682
g6
tp683
Rp684
(I1
(tg12
I00
S',/^\x8f\\\xccF@'
p685
tp686
bag3
(g4
(I0
tp687
g6
tp688
Rp689
(I1
(tg12
I00
S'nM\xf8\x8b\xe9!G@'
p690
tp691
bag3
(g4
(I0
tp692
g6
tp693
Rp694
(I1
(tg12
I00
S'3\x8c\xea\xaa\xae|G@'
p695
tp696
bag3
(g4
(I0
tp697
g6
tp698
Rp699
(I1
(tg12
I00
S'j`\xf1*/\xd5G@'
p700
tp701
bag3
(g4
(I0
tp702
g6
tp703
Rp704
(I1
(tg12
I00
S'~\xb1\xb8\xc9(/H@'
p705
tp706
bag3
(g4
(I0
tp707
g6
tp708
Rp709
(I1
(tg12
I00
S'\x98\xec\xd7\x95\xea\x8fH@'
p710
tp711
bag3
(g4
(I0
tp712
g6
tp713
Rp714
(I1
(tg12
I00
S'\xe8\xda\xeb9z\xf0H@'
p715
tp716
bag3
(g4
(I0
tp717
g6
tp718
Rp719
(I1
(tg12
I00
S"J\x1aR\xbb'LI@"
p720
tp721
bag3
(g4
(I0
tp722
g6
tp723
Rp724
(I1
(tg12
I00
S'7>\xa2X\xd0\xa1I@'
p725
tp726
bag3
(g4
(I0
tp727
g6
tp728
Rp729
(I1
(tg12
I00
S'!\xbc\xfel\xe9\xf3I@'
p730
tp731
bag3
(g4
(I0
tp732
g6
tp733
Rp734
(I1
(tg12
I00
S'\x14\x8a\x85\xcb\x02IJ@'
p735
tp736
bag3
(g4
(I0
tp737
g6
tp738
Rp739
(I1
(tg12
I00
S'\x1c\xc2,\xe0\x02\x9fJ@'
p740
tp741
bag3
(g4
(I0
tp742
g6
tp743
Rp744
(I1
(tg12
I00
S'\xe4{y\xaay\xf6J@'
p745
tp746
bag3
(g4
(I0
tp747
g6
tp748
Rp749
(I1
(tg12
I00
S'Ev\x8f2\xc5SK@'
p750
tp751
bag3
(g4
(I0
tp752
g6
tp753
Rp754
(I1
(tg12
I00
S'\xfc\xb0dK\x9f\xb0K@'
p755
tp756
bag3
(g4
(I0
tp757
g6
tp758
Rp759
(I1
(tg12
I00
S'\xdb]-\xf1\xf7\x0fL@'
p760
tp761
bag3
(g4
(I0
tp762
g6
tp763
Rp764
(I1
(tg12
I00
S'a]\xc8(orL@'
p765
tp766
bag3
(g4
(I0
tp767
g6
tp768
Rp769
(I1
(tg12
I00
S'\xf9\x1a\x8cJ\xfc\xdbL@'
p770
tp771
bag3
(g4
(I0
tp772
g6
tp773
Rp774
(I1
(tg12
I00
S'\xf4;C]9HM@'
p775
tp776
bag3
(g4
(I0
tp777
g6
tp778
Rp779
(I1
(tg12
I00
S'\xc0\x13*\xe0>\xa2M@'
p780
tp781
bag3
(g4
(I0
tp782
g6
tp783
Rp784
(I1
(tg12
I00
S'\x8fP\xea\xa2b\xeaM@'
p785
tp786
bag3
(g4
(I0
tp787
g6
tp788
Rp789
(I1
(tg12
I00
S'N\xb3H/y&N@'
p790
tp791
bag3
(g4
(I0
tp792
g6
tp793
Rp794
(I1
(tg12
I00
S'O\xcd\xc1\xe7\xa4^N@'
p795
tp796
bag3
(g4
(I0
tp797
g6
tp798
Rp799
(I1
(tg12
I00
S'SB \xf3\xb3\x99N@'
p800
tp801
bag3
(g4
(I0
tp802
g6
tp803
Rp804
(I1
(tg12
I00
S'\x8a\xb1P4\x10\xddN@'
p805
tp806
bag3
(g4
(I0
tp807
g6
tp808
Rp809
(I1
(tg12
I00
S'u\xcc\xc4@j(O@'
p810
tp811
bag3
(g4
(I0
tp812
g6
tp813
Rp814
(I1
(tg12
I00
S'^\x89M\x10\xa1}O@'
p815
tp816
bag3
(g4
(I0
tp817
g6
tp818
Rp819
(I1
(tg12
I00
S'\xf8\xcaN0\xfa\xddO@'
p820
tp821
bag3
(g4
(I0
tp822
g6
tp823
Rp824
(I1
(tg12
I00
S'\xf3fh\x92.&P@'
p825
tp826
bag3
(g4
(I0
tp827
g6
tp828
Rp829
(I1
(tg12
I00
S'\xa2\xc1\xaf\x86\xbfeP@'
p830
tp831
bag3
(g4
(I0
tp832
g6
tp833
Rp834
(I1
(tg12
I00
S'\x060\x83\x8b\xc4\xb1P@'
p835
tp836
bag3
(g4
(I0
tp837
g6
tp838
Rp839
(I1
(tg12
I00
S'M\x1c\x03\x02\xff\x17Q@'
p840
tp841
bag3
(g4
(I0
tp842
g6
tp843
Rp844
(I1
(tg12
I00
S'\x84N\xfdSJ\xa0Q@'
p845
tp846
bag3
(g4
(I0
tp847
g6
tp848
Rp849
(I1
(tg12
I00
S'\t\x81\xf0\x8e\xd6\\R@'
p850
tp851
bag3
(g4
(I0
tp852
g6
tp853
Rp854
(I1
(tg12
I00
S'w\xbb\x16"GyS@'
p855
tp856
bag3
(g4
(I0
tp857
g6
tp858
Rp859
(I1
(tg12
I00
S'\xb8I%Nj\xd3T@'
p860
tp861
bag3
(g4
(I0
tp862
g6
tp863
Rp864
(I1
(tg12
I00
S'Z\x0e@\xa6\x80$V@'
p865
tp866
bag3
(g4
(I0
tp867
g6
tp868
Rp869
(I1
(tg12
I00
S'\x985\x88b\\MW@'
p870
tp871
bag3
(g4
(I0
tp872
g6
tp873
Rp874
(I1
(tg12
I00
S'\\\xbd`V]?X@'
p875
tp876
bag3
(g4
(I0
tp877
g6
tp878
Rp879
(I1
(tg12
I00
S'\x87}\x9f\xc9\xbc\x0eY@'
p880
tp881
bag3
(g4
(I0
tp882
g6
tp883
Rp884
(I1
(tg12
I00
S'\xc2\xaa\x0e\x9a[\xd9Y@'
p885
tp886
bag3
(g4
(I0
tp887
g6
tp888
Rp889
(I1
(tg12
I00
S'T\x94\x8eB \xb8Z@'
p890
tp891
bag3
(g4
(I0
tp892
g6
tp893
Rp894
(I1
(tg12
I00
S'>\x1b\xa9u\xd5\xb8[@'
p895
tp896
bag3
(g4
(I0
tp897
g6
tp898
Rp899
(I1
(tg12
I00
S'\xf2\xf1\x1e\xbc\xb1\xbd\\@'
p900
tp901
bag3
(g4
(I0
tp902
g6
tp903
Rp904
(I1
(tg12
I00
S'!=\x95\x85\x8b\x9f]@'
p905
tp906
bag3
(g4
(I0
tp907
g6
tp908
Rp909
(I1
(tg12
I00
S'G\xca\xe1\xcd\x0f^^@'
p910
tp911
bag3
(g4
(I0
tp912
g6
tp913
Rp914
(I1
(tg12
I00
S'-\x905\xeb@\x00_@'
p915
tp916
bag3
(g4
(I0
tp917
g6
tp918
Rp919
(I1
(tg12
I00
S'B\xbeT[ \x9e_@'
p920
tp921
bag3
(g4
(I0
tp922
g6
tp923
Rp924
(I1
(tg12
I00
S'\re#\x1b\xdf$`@'
p925
tp926
bag3
(g4
(I0
tp927
g6
tp928
Rp929
(I1
(tg12
I00
S'\x14\xec\x0e\xa2\xd2\x85`@'
p930
tp931
bag3
(g4
(I0
tp932
g6
tp933
Rp934
(I1
(tg12
I00
S'\x8a\xb6\xef.$\xf7`@'
p935
tp936
bag3
(g4
(I0
tp937
g6
tp938
Rp939
(I1
(tg12
I00
S'\xc6\xac\xe4H\x02ya@'
p940
tp941
bag3
(g4
(I0
tp942
g6
tp943
Rp944
(I1
(tg12
I00
S',\xd8\xe7\xd3>\x03b@'
p945
tp946
bag3
(g4
(I0
tp947
g6
tp948
Rp949
(I1
(tg12
I00
S'8Y\xbdZ8\x89b@'
p950
tp951
bag3
(g4
(I0
tp952
g6
tp953
Rp954
(I1
(tg12
I00
S'\x89\xc9\xdao_\x00c@'
p955
tp956
bag3
(g4
(I0
tp957
g6
tp958
Rp959
(I1
(tg12
I00
S'HG\xbc|Tjc@'
p960
tp961
bag3
(g4
(I0
tp962
g6
tp963
Rp964
(I1
(tg12
I00
S'\x9cK\x82\xd8\x17\xdac@'
p965
tp966
bag3
(g4
(I0
tp967
g6
tp968
Rp969
(I1
(tg12
I00
S'W\x7f5\xe0\xec_d@'
p970
tp971
bag3
(g4
(I0
tp972
g6
tp973
Rp974
(I1
(tg12
I00
S'7\xa8o\xac\xce\xfed@'
p975
tp976
bag3
(g4
(I0
tp977
g6
tp978
Rp979
(I1
(tg12
I00
S'c;\t\xdd\xd5\xafe@'
p980
tp981
bag3
(g4
(I0
tp982
g6
tp983
Rp984
(I1
(tg12
I00
S'N]\xca\xb0\xa7_f@'
p985
tp986
bag3
(g4
(I0
tp987
g6
tp988
Rp989
(I1
(tg12
I00
S',48$<\xfaf@'
p990
tp991
bag3
(g4
(I0
tp992
g6
tp993
Rp994
(I1
(tg12
I00
S'\xa2\x83\x92;\x9dzg@'
p995
tp996
bag3
(g4
(I0
tp997
g6
tp998
Rp999
(I1
(tg12
I00
S'\xa1p\x1b\x88\x8a\xe4g@'
p1000
tp1001
bag3
(g4
(I0
tp1002
g6
tp1003
Rp1004
(I1
(tg12
I00
S'\x10\xda\xa6\xa7\x0fLh@'
p1005
tp1006
bag3
(g4
(I0
tp1007
g6
tp1008
Rp1009
(I1
(tg12
I00
S'$\x84\x90^h\xbdh@'
p1010
tp1011
bag3
(g4
(I0
tp1012
g6
tp1013
Rp1014
(I1
(tg12
I00
S"'wDbG;i@"
p1015
tp1016
bag3
(g4
(I0
tp1017
g6
tp1018
Rp1019
(I1
(tg12
I00
S'\xb2\xa0\xfd\xa5\xe4\xb4i@'
p1020
tp1021
bag3
(g4
(I0
tp1022
g6
tp1023
Rp1024
(I1
(tg12
I00
S'\x8eT\xabl\x0f\x1aj@'
p1025
tp1026
bag3
(g4
(I0
tp1027
g6
tp1028
Rp1029
(I1
(tg12
I00
S'!\xf4\xecK\x9fhj@'
p1030
tp1031
bag3
(g4
(I0
tp1032
g6
tp1033
Rp1034
(I1
(tg12
I00
S'B\xfc\x93\xa5\x11\xa8j@'
p1035
tp1036
bag3
(g4
(I0
tp1037
g6
tp1038
Rp1039
(I1
(tg12
I00
S'\x08\x13V|\x85\xeej@'
p1040
tp1041
bag3
(g4
(I0
tp1042
g6
tp1043
Rp1044
(I1
(tg12
I00
S'\x193!{\xd2Ek@'
p1045
tp1046
bag3
(g4
(I0
tp1047
g6
tp1048
Rp1049
(I1
(tg12
I00
S'S\x07\x05e\xc7\xaak@'
p1050
tp1051
bag3
(g4
(I0
tp1052
g6
tp1053
Rp1054
(I1
(tg12
I00
S'\xb6R\xed<5%l@'
p1055
tp1056
bag3
(g4
(I0
tp1057
g6
tp1058
Rp1059
(I1
(tg12
I00
S';\xad\xc5\x11s\x98l@'
p1060
tp1061
bag3
(g4
(I0
tp1062
g6
tp1063
Rp1064
(I1
(tg12
I00
S'\xcd\xe5\x9dC9\xf3l@'
p1065
tp1066
bag3
(g4
(I0
tp1067
g6
tp1068
Rp1069
(I1
(tg12
I00
S'p\xff]F\xb5Cm@'
p1070
tp1071
bag3
(g4
(I0
tp1072
g6
tp1073
Rp1074
(I1
(tg12
I00
S'p\xf9\x161O\xa1m@'
p1075
tp1076
bag3
(g4
(I0
tp1077
g6
tp1078
Rp1079
(I1
(tg12
I00
S'{m]\xd1\x8e\x1en@'
p1080
tp1081
bag3
(g4
(I0
tp1082
g6
tp1083
Rp1084
(I1
(tg12
I00
S'\x80\xb0\x18\x05A\xb6n@'
p1085
tp1086
bag3
(g4
(I0
tp1087
g6
tp1088
Rp1089
(I1
(tg12
I00
S'\x183\xfe\x90\xffZo@'
p1090
tp1091
bag3
(g4
(I0
tp1092
g6
tp1093
Rp1094
(I1
(tg12
I00
S'c J\xf1\n\x05p@'
p1095
tp1096
bag3
(g4
(I0
tp1097
g6
tp1098
Rp1099
(I1
(tg12
I00
S'\xd0(\xad3\xb6\\p@'
p1100
tp1101
bag3
(g4
(I0
tp1102
g6
tp1103
Rp1104
(I1
(tg12
I00
S'\xb8^\xc5S%\xb0p@'
p1105
tp1106
bag3
(g4
(I0
tp1107
g6
tp1108
Rp1109
(I1
(tg12
I00
S'w\xbc\xfc\xe2\xb3\xfdp@'
p1110
tp1111
bag3
(g4
(I0
tp1112
g6
tp1113
Rp1114
(I1
(tg12
I00
S'\\\x18#\xfb\xa6Fq@'
p1115
tp1116
bag3
(g4
(I0
tp1117
g6
tp1118
Rp1119
(I1
(tg12
I00
S'\xadF7\x87>\x8dq@'
p1120
tp1121
bag3
(g4
(I0
tp1122
g6
tp1123
Rp1124
(I1
(tg12
I00
S'n7\x03R\xb9\xd4q@'
p1125
tp1126
bag3
(g4
(I0
tp1127
g6
tp1128
Rp1129
(I1
(tg12
I00
S'\x8fW!\xfb90r@'
p1130
tp1131
bag3
(g4
(I0
tp1132
g6
tp1133
Rp1134
(I1
(tg12
I00
S'H\x13\xc4G\xf4\xb5r@'
p1135
tp1136
bag3
(g4
(I0
tp1137
g6
tp1138
Rp1139
(I1
(tg12
I00
S'\x94\x1b]\xe0{hs@'
p1140
tp1141
bag3
(g4
(I0
tp1142
g6
tp1143
Rp1144
(I1
(tg12
I00
S'\xd9U\x82\xc6\xde.t@'
p1145
tp1146
bag3
(g4
(I0
tp1147
g6
tp1148
Rp1149
(I1
(tg12
I00
S'j\x8b:\xd6\x86\xe5t@'
p1150
tp1151
bag3
(g4
(I0
tp1152
g6
tp1153
Rp1154
(I1
(tg12
I00
S'P\xabc>\x07tu@'
p1155
tp1156
bag3
(g4
(I0
tp1157
g6
tp1158
Rp1159
(I1
(tg12
I00
S'\xe7\x1db\xcdt\xdcu@'
p1160
tp1161
bag3
(g4
(I0
tp1162
g6
tp1163
Rp1164
(I1
(tg12
I00
S'V\x83\xae\xa1\x840v@'
p1165
tp1166
bag3
(g4
(I0
tp1167
g6
tp1168
Rp1169
(I1
(tg12
I00
S'\xa0\xda\x89n\x8e\x8av@'
p1170
tp1171
bag3
(g4
(I0
tp1172
g6
tp1173
Rp1174
(I1
(tg12
I00
S'd\xb0\xe1\xaa\x99\xeav@'
p1175
tp1176
bag3
(g4
(I0
tp1177
g6
tp1178
Rp1179
(I1
(tg12
I00
S'9C\xf0f\x17?w@'
p1180
tp1181
bag3
(g4
(I0
tp1182
g6
tp1183
Rp1184
(I1
(tg12
I00
S'\xa9/|]O\x81w@'
p1185
tp1186
bag3
(g4
(I0
tp1187
g6
tp1188
Rp1189
(I1
(tg12
I00
S"\rY\xedF'\xb8w@"
p1190
tp1191
bag3
(g4
(I0
tp1192
g6
tp1193
Rp1194
(I1
(tg12
I00
S'\xe5\xb6\xa4r\x05\xeew@'
p1195
tp1196
bag3
(g4
(I0
tp1197
g6
tp1198
Rp1199
(I1
(tg12
I00
S'\x82@5s*(x@'
p1200
tp1201
bag3
(g4
(I0
tp1202
g6
tp1203
Rp1204
(I1
(tg12
I00
S'\x15\xf1\x8f\xfd<bx@'
p1205
tp1206
bag3
(g4
(I0
tp1207
g6
tp1208
Rp1209
(I1
(tg12
I00
S'\xcf2\xe0\x8b\x88\x94x@'
p1210
tp1211
bag3
(g4
(I0
tp1212
g6
tp1213
Rp1214
(I1
(tg12
I00
S'\xe9\xc3\xf7W\xed\xbex@'
p1215
tp1216
bag3
(g4
(I0
tp1217
g6
tp1218
Rp1219
(I1
(tg12
I00
S'E*Qa\xb9\xe4x@'
p1220
tp1221
bag3
(g4
(I0
tp1222
g6
tp1223
Rp1224
(I1
(tg12
I00
S'\xc8\x13\xeb\xad\x17\ny@'
p1225
tp1226
bag3
(g4
(I0
tp1227
g6
tp1228
Rp1229
(I1
(tg12
I00
S')\xdbCn\x9f2y@'
p1230
tp1231
bag3
(g4
(I0
tp1232
g6
tp1233
Rp1234
(I1
(tg12
I00
S'\x9a\xf4\xa1\x97\xe7Zy@'
p1235
tp1236
bag3
(g4
(I0
tp1237
g6
tp1238
Rp1239
(I1
(tg12
I00
S'f\xdd\xb06f\x7fy@'
p1240
tp1241
bag3
(g4
(I0
tp1242
g6
tp1243
Rp1244
(I1
(tg12
I00
S'S\x94\x03\xf4Q\xa6y@'
p1245
tp1246
bag3
(g4
(I0
tp1247
g6
tp1248
Rp1249
(I1
(tg12
I00
S'x\xf7\xf3(\x86\xd9y@'
p1250
tp1251
bag3
(g4
(I0
tp1252
g6
tp1253
Rp1254
(I1
(tg12
I00
S'&\x0bw\xcc\xda\x1cz@'
p1255
tp1256
bag3
(g4
(I0
tp1257
g6
tp1258
Rp1259
(I1
(tg12
I00
S'\x82\xfaM\x91\x87ez@'
p1260
tp1261
bag3
(g4
(I0
tp1262
g6
tp1263
Rp1264
(I1
(tg12
I00
S'\xbbpi"n\xa7z@'
p1265
tp1266
bag3
(g4
(I0
tp1267
g6
tp1268
Rp1269
(I1
(tg12
I00
S')\xc6tZ\x16\xddz@'
p1270
tp1271
bag3
(g4
(I0
tp1272
g6
tp1273
Rp1274
(I1
(tg12
I00
S'\x90RR\xea\x93\x07{@'
p1275
tp1276
bag3
(g4
(I0
tp1277
g6
tp1278
Rp1279
(I1
(tg12
I00
S'\x0f6\x0e\xaf\x9e*{@'
p1280
tp1281
bag3
(g4
(I0
tp1282
g6
tp1283
Rp1284
(I1
(tg12
I00
S'\xae\x18\x99\xcb*R{@'
p1285
tp1286
bag3
(g4
(I0
tp1287
g6
tp1288
Rp1289
(I1
(tg12
I00
S'\x96\x8e\x0f\x0f\xb8\x80{@'
p1290
tp1291
bag3
(g4
(I0
tp1292
g6
tp1293
Rp1294
(I1
(tg12
I00
S'ZH\xdc\x85\x9a\xba{@'
p1295
tp1296
bag3
(g4
(I0
tp1297
g6
tp1298
Rp1299
(I1
(tg12
I00
S'\xb4\xf21K\xdb\xf2{@'
p1300
tp1301
bag3
(g4
(I0
tp1302
g6
tp1303
Rp1304
(I1
(tg12
I00
S'\xad\x01\x96\xd1|$|@'
p1305
tp1306
bag3
(g4
(I0
tp1307
g6
tp1308
Rp1309
(I1
(tg12
I00
S'\xc9n\xda&*R|@'
p1310
tp1311
bag3
(g4
(I0
tp1312
g6
tp1313
Rp1314
(I1
(tg12
I00
S'e\xb7\x8d\x80\x9b\x81|@'
p1315
tp1316
bag3
(g4
(I0
tp1317
g6
tp1318
Rp1319
(I1
(tg12
I00
S'm\xc2\xbc\x0c\xb6\xb4|@'
p1320
tp1321
bag3
(g4
(I0
tp1322
g6
tp1323
Rp1324
(I1
(tg12
I00
S'\x86F\x90k\xcf\xec|@'
p1325
tp1326
bag3
(g4
(I0
tp1327
g6
tp1328
Rp1329
(I1
(tg12
I00
S'\xb5\x81-\x06\x07.}@'
p1330
tp1331
bag3
(g4
(I0
tp1332
g6
tp1333
Rp1334
(I1
(tg12
I00
S'\x05As\x85\xc2|}@'
p1335
tp1336
bag3
(g4
(I0
tp1337
g6
tp1338
Rp1339
(I1
(tg12
I00
S'u\xfa\xfdX:\xcc}@'
p1340
tp1341
bag3
(g4
(I0
tp1342
g6
tp1343
Rp1344
(I1
(tg12
I00
S'\x84\xfa{)p\x16~@'
p1345
tp1346
bag3
(g4
(I0
tp1347
g6
tp1348
Rp1349
(I1
(tg12
I00
S'\x1c\x98\xee8y\\~@'
p1350
tp1351
bag3
(g4
(I0
tp1352
g6
tp1353
Rp1354
(I1
(tg12
I00
S'{\x0c\xc7\xd1\xf3\xa1~@'
p1355
tp1356
bag3
(g4
(I0
tp1357
g6
tp1358
Rp1359
(I1
(tg12
I00
S'k#\xe7p=\xed~@'
p1360
tp1361
bag3
(g4
(I0
tp1362
g6
tp1363
Rp1364
(I1
(tg12
I00
S'\xd9\xde\xb6S\xe6B\x7f@'
p1365
tp1366
bag3
(g4
(I0
tp1367
g6
tp1368
Rp1369
(I1
(tg12
I00
S'xz[)`\xa3\x7f@'
p1370
tp1371
bag3
(g4
(I0
tp1372
g6
tp1373
Rp1374
(I1
(tg12
I00
S"\xba\x02#'\r\x08\x80@"
p1375
tp1376
bag3
(g4
(I0
tp1377
g6
tp1378
Rp1379
(I1
(tg12
I00
S'\xb2\x8a\xbc\x98iA\x80@'
p1380
tp1381
bag3
(g4
(I0
tp1382
g6
tp1383
Rp1384
(I1
(tg12
I00
S't\x98\xb5\xb3P{\x80@'
p1385
tp1386
bag3
(g4
(I0
tp1387
g6
tp1388
Rp1389
(I1
(tg12
I00
S'l\x89\x16\xd1\x90\xb5\x80@'
p1390
tp1391
bag3
(g4
(I0
tp1392
g6
tp1393
Rp1394
(I1
(tg12
I00
S'1\xd9\x9d\x1c\xee\xef\x80@'
p1395
tp1396
bag3
(g4
(I0
tp1397
g6
tp1398
Rp1399
(I1
(tg12
I00
S'\xcb]O-\t/\x81@'
p1400
tp1401
bag3
(g4
(I0
tp1402
g6
tp1403
Rp1404
(I1
(tg12
I00
S'\xccy\xfd\x11ru\x81@'
p1405
tp1406
bag3
(g4
(I0
tp1407
g6
tp1408
Rp1409
(I1
(tg12
I00
S'\xb8H\x8aU\xb8\xc3\x81@'
p1410
tp1411
bag3
(g4
(I0
tp1412
g6
tp1413
Rp1414
(I1
(tg12
I00
S'\x93\xe4\xd0\xa7Y\x1b\x82@'
p1415
tp1416
bag3
(g4
(I0
tp1417
g6
tp1418
Rp1419
(I1
(tg12
I00
S'l\xf6\xc4\x7f\xb7y\x82@'
p1420
tp1421
bag3
(g4
(I0
tp1422
g6
tp1423
Rp1424
(I1
(tg12
I00
S'#^\x03p\x14\xd8\x82@'
p1425
tp1426
bag3
(g4
(I0
tp1427
g6
tp1428
Rp1429
(I1
(tg12
I00
S'\x9f\xf7\xaff\x9f6\x83@'
p1430
tp1431
bag3
(g4
(I0
tp1432
g6
tp1433
Rp1434
(I1
(tg12
I00
S'>\x175\x86P\x9a\x83@'
p1435
tp1436
bag3
(g4
(I0
tp1437
g6
tp1438
Rp1439
(I1
(tg12
I00
S'\xd1q\x8aQ\xe7\x06\x84@'
p1440
tp1441
bag3
(g4
(I0
tp1442
g6
tp1443
Rp1444
(I1
(tg12
I00
S'\xa9^\x7f\x94\xfcy\x84@'
p1445
tp1446
bag3
(g4
(I0
tp1447
g6
tp1448
Rp1449
(I1
(tg12
I00
S'\xe8\xfa\x17\xc4\xc7\xef\x84@'
p1450
tp1451
bag3
(g4
(I0
tp1452
g6
tp1453
Rp1454
(I1
(tg12
I00
S'\xf6\x97 q\x05f\x85@'
p1455
tp1456
bag3
(g4
(I0
tp1457
g6
tp1458
Rp1459
(I1
(tg12
I00
S'\xc8:y8\xb1\xd7\x85@'
p1460
tp1461
bag3
(g4
(I0
tp1462
g6
tp1463
Rp1464
(I1
(tg12
I00
S'\x9a\x91\x01\x9b\x8fB\x86@'
p1465
tp1466
bag3
(g4
(I0
tp1467
g6
tp1468
Rp1469
(I1
(tg12
I00
S'M\x14\xccV \xa6\x86@'
p1470
tp1471
bag3
(g4
(I0
tp1472
g6
tp1473
Rp1474
(I1
(tg12
I00
S'\x13\xd4\xdd\xbc\xcd\x01\x87@'
p1475
tp1476
bag3
(g4
(I0
tp1477
g6
tp1478
Rp1479
(I1
(tg12
I00
S'\x8e\xad\x8f\x85\x99Z\x87@'
p1480
tp1481
bag3
(g4
(I0
tp1482
g6
tp1483
Rp1484
(I1
(tg12
I00
S'\x01\xd89\xf6\x0b\xb6\x87@'
p1485
tp1486
bag3
(g4
(I0
tp1487
g6
tp1488
Rp1489
(I1
(tg12
I00
S'E\x96\x89j\xe8\x16\x88@'
p1490
tp1491
bag3
(g4
(I0
tp1492
g6
tp1493
Rp1494
(I1
(tg12
I00
S'\xb7\x1e\xef\x01I\x81\x88@'
p1495
tp1496
bag3
(g4
(I0
tp1497
g6
tp1498
Rp1499
(I1
(tg12
I00
S'|\xe3\x99\xcb\x1a\xf2\x88@'
p1500
tp1501
bag3
(g4
(I0
tp1502
g6
tp1503
Rp1504
(I1
(tg12
I00
S's=\x0b\x05Ld\x89@'
p1505
tp1506
bag3
(g4
(I0
tp1507
g6
tp1508
Rp1509
(I1
(tg12
I00
S"'\x98Fp*\xd8\x89@"
p1510
tp1511
bag3
(g4
(I0
tp1512
g6
tp1513
Rp1514
(I1
(tg12
I00
S'\xb7]\xc0\xac-O\x8a@'
p1515
tp1516
bag3
(g4
(I0
tp1517
g6
tp1518
Rp1519
(I1
(tg12
I00
S'\xc9\xcd\x9a\x81\x97\xcb\x8a@'
p1520
tp1521
bag3
(g4
(I0
tp1522
g6
tp1523
Rp1524
(I1
(tg12
I00
S'ft]h\xe8X\x8b@'
p1525
tp1526
bag3
(g4
(I0
tp1527
g6
tp1528
Rp1529
(I1
(tg12
I00
S'\xe1qy\xfa\xa0\x00\x8c@'
p1530
tp1531
bag3
(g4
(I0
tp1532
g6
tp1533
Rp1534
(I1
(tg12
I00
S'\x00\xe7\x04\x9b\xae\xc4\x8c@'
p1535
tp1536
bag3
(g4
(I0
tp1537
g6
tp1538
Rp1539
(I1
(tg12
I00
S'\xa98]M\x00\xcd\x8d@'
p1540
tp1541
bag3
(g4
(I0
tp1542
g6
tp1543
Rp1544
(I1
(tg12
I00
S'ykB\xe2\xff\t\x8f@'
p1545
tp1546
bag3
(g4
(I0
tp1547
g6
tp1548
Rp1549
(I1
(tg12
I00
S'\xcd55\x14X%\x90@'
p1550
tp1551
bag3
(g4
(I0
tp1552
g6
tp1553
Rp1554
(I1
(tg12
I00
S'\xc4\xde\xe0y\xcf\xc3\x90@'
p1555
tp1556
bag3
(g4
(I0
tp1557
g6
tp1558
Rp1559
(I1
(tg12
I00
S'\xed{\xb3\x93\xecg\x91@'
p1560
tp1561
bag3
(g4
(I0
tp1562
g6
tp1563
Rp1564
(I1
(tg12
I00
S'\xc5\xbd\xb6\x84)\r\x92@'
p1565
tp1566
bag3
(g4
(I0
tp1567
g6
tp1568
Rp1569
(I1
(tg12
I00
S'=\x80\xa7\xad\x12\xaf\x92@'
p1570
tp1571
bag3
(g4
(I0
tp1572
g6
tp1573
Rp1574
(I1
(tg12
I00
S'`\xc0\xaa=!Q\x93@'
p1575
tp1576
bag3
(g4
(I0
tp1577
g6
tp1578
Rp1579
(I1
(tg12
I00
S'\xe5y(\xa9%\xee\x93@'
p1580
tp1581
bag3
(g4
(I0
tp1582
g6
tp1583
Rp1584
(I1
(tg12
I00
S'z\x84\xc2\xdb\x92\x80\x94@'
p1585
tp1586
bag3
(g4
(I0
tp1587
g6
tp1588
Rp1589
(I1
(tg12
I00
S'B\xe0[\xeb\x9c\x08\x95@'
p1590
tp1591
bag3
(g4
(I0
tp1592
g6
tp1593
Rp1594
(I1
(tg12
I00
S'\xea5\x8a\x08\xdd\x84\x95@'
p1595
tp1596
bag3
(g4
(I0
tp1597
g6
tp1598
Rp1599
(I1
(tg12
I00
S'\x8b\xf7E\x02\x82\xf6\x95@'
p1600
tp1601
bag3
(g4
(I0
tp1602
g6
tp1603
Rp1604
(I1
(tg12
I00
S'\xf3J\x0b\xbb\x88`\x96@'
p1605
tp1606
bag3
(g4
(I0
tp1607
g6
tp1608
Rp1609
(I1
(tg12
I00
S'\xb8\x99QZ:\xc4\x96@'
p1610
tp1611
bag3
(g4
(I0
tp1612
g6
tp1613
Rp1614
(I1
(tg12
I00
S'\xad\xb5\xee\xf59#\x97@'
p1615
tp1616
bag3
(g4
(I0
tp1617
g6
tp1618
Rp1619
(I1
(tg12
I00
S'dp\xb8H\xdfw\x97@'
p1620
tp1621
bag3
(g4
(I0
tp1622
g6
tp1623
Rp1624
(I1
(tg12
I00
S'\xf6\x01\\e\xd2\xbd\x97@'
p1625
tp1626
bag3
(g4
(I0
tp1627
g6
tp1628
Rp1629
(I1
(tg12
I00
S'x&$K\xaf\xf3\x97@'
p1630
tp1631
bag3
(g4
(I0
tp1632
g6
tp1633
Rp1634
(I1
(tg12
I00
S'\x94\xdf\x85\xab\xa1\x1c\x98@'
p1635
tp1636
bag3
(g4
(I0
tp1637
g6
tp1638
Rp1639
(I1
(tg12
I00
S'\xce\xd3]|\xf4?\x98@'
p1640
tp1641
bag3
(g4
(I0
tp1642
g6
tp1643
Rp1644
(I1
(tg12
I00
S'\x0e0\x96x\xc8b\x98@'
p1645
tp1646
bag3
(g4
(I0
tp1647
g6
tp1648
Rp1649
(I1
(tg12
I00
S'\x0b\xc6\xc8KO\x83\x98@'
p1650
tp1651
bag3
(g4
(I0
tp1652
g6
tp1653
Rp1654
(I1
(tg12
I00
S'"\xcf\xcfmT\xa4\x98@'
p1655
tp1656
bag3
(g4
(I0
tp1657
g6
tp1658
Rp1659
(I1
(tg12
I00
S'V\x11\xf5\xfdR\xc4\x98@'
p1660
tp1661
bag3
(g4
(I0
tp1662
g6
tp1663
Rp1664
(I1
(tg12
I00
S'y\xa7\xdaJ\xc0\xde\x98@'
p1665
tp1666
bag3
(g4
(I0
tp1667
g6
tp1668
Rp1669
(I1
(tg12
I00
S'\\\x19\x02\x88\r\xf2\x98@'
p1670
tp1671
bag3
(g4
(I0
tp1672
g6
tp1673
Rp1674
(I1
(tg12
I00
S'\xff\xeb\x05\xdf\xbe\x00\x99@'
p1675
tp1676
bag3
(g4
(I0
tp1677
g6
tp1678
Rp1679
(I1
(tg12
I00
S'5\xcd\x9b\x9ec\x0e\x99@'
p1680
tp1681
bag3
(g4
(I0
tp1682
g6
tp1683
Rp1684
(I1
(tg12
I00
S'4\xf2\xd6\x05W\x1f\x99@'
p1685
tp1686
bag3
(g4
(I0
tp1687
g6
tp1688
Rp1689
(I1
(tg12
I00
S'uS@\x1aB7\x99@'
p1690
tp1691
bag3
(g4
(I0
tp1692
g6
tp1693
Rp1694
(I1
(tg12
I00
S'\x84\xba\xd2mBZ\x99@'
p1695
tp1696
bag3
(g4
(I0
tp1697
g6
tp1698
Rp1699
(I1
(tg12
I00
S'\xe4\xd4BG\x92\x83\x99@'
p1700
tp1701
bag3
(g4
(I0
tp1702
g6
tp1703
Rp1704
(I1
(tg12
I00
S'l\xa4\x06\xcf\x91\xaa\x99@'
p1705
tp1706
bag3
(g4
(I0
tp1707
g6
tp1708
Rp1709
(I1
(tg12
I00
S'<\xfb)\xc5\xca\xc9\x99@'
p1710
tp1711
bag3
(g4
(I0
tp1712
g6
tp1713
Rp1714
(I1
(tg12
I00
S'\xbe\x94|=\x83\xdf\x99@'
p1715
tp1716
bag3
(g4
(I0
tp1717
g6
tp1718
Rp1719
(I1
(tg12
I00
S't\x18$\x92i\xee\x99@'
p1720
tp1721
bag3
(g4
(I0
tp1722
g6
tp1723
Rp1724
(I1
(tg12
I00
S'\xf3\xb1MC\xfd\x01\x9a@'
p1725
tp1726
bag3
(g4
(I0
tp1727
g6
tp1728
Rp1729
(I1
(tg12
I00
S'\x02Y\xa9\x87\x11+\x9a@'
p1730
tp1731
bag3
(g4
(I0
tp1732
g6
tp1733
Rp1734
(I1
(tg12
I00
S'7\xc0\xc6\x80/s\x9a@'
p1735
tp1736
bag3
(g4
(I0
tp1737
g6
tp1738
Rp1739
(I1
(tg12
I00
S'!<\xd5\xa4\xeb\xc8\x9a@'
p1740
tp1741
bag3
(g4
(I0
tp1742
g6
tp1743
Rp1744
(I1
(tg12
I00
S'\xa8\xaf\xdd\x89\x1d\x1d\x9b@'
p1745
tp1746
bag3
(g4
(I0
tp1747
g6
tp1748
Rp1749
(I1
(tg12
I00
S'2L\xd8\xfd\xa7t\x9b@'
p1750
tp1751
bag3
(g4
(I0
tp1752
g6
tp1753
Rp1754
(I1
(tg12
I00
S']\xa3\x19\xe7\x06\xcd\x9b@'
p1755
tp1756
bag3
(g4
(I0
tp1757
g6
tp1758
Rp1759
(I1
(tg12
I00
S't\xd7g\xedz)\x9c@'
p1760
tp1761
bag3
(g4
(I0
tp1762
g6
tp1763
Rp1764
(I1
(tg12
I00
S'W\xf3&w*\x91\x9c@'
p1765
tp1766
bag3
(g4
(I0
tp1767
g6
tp1768
Rp1769
(I1
(tg12
I00
S'\x89<\xba\x88\xbf\x07\x9d@'
p1770
tp1771
bag3
(g4
(I0
tp1772
g6
tp1773
Rp1774
(I1
(tg12
I00
S'\x97\x88@\x9f\x1a\x96\x9d@'
p1775
tp1776
bag3
(g4
(I0
tp1777
g6
tp1778
Rp1779
(I1
(tg12
I00
S'\xf7a\xbei\xd8\x12\x9e@'
p1780
tp1781
bag3
(g4
(I0
tp1782
g6
tp1783
Rp1784
(I1
(tg12
I00
S'\xa4\x7f\x93\x8f\x07\x87\x9e@'
p1785
tp1786
bag3
(g4
(I0
tp1787
g6
tp1788
Rp1789
(I1
(tg12
I00
S'V\x04\x07F\xa9\xf5\x9e@'
p1790
tp1791
bag3
(g4
(I0
tp1792
g6
tp1793
Rp1794
(I1
(tg12
I00
S'\xc6\xc2W\x03\xdeX\x9f@'
p1795
tp1796
bag3
(g4
(I0
tp1797
g6
tp1798
Rp1799
(I1
(tg12
I00
S'\xb63X\xf1=\xa9\x9f@'
p1800
tp1801
bag3
(g4
(I0
tp1802
g6
tp1803
Rp1804
(I1
(tg12
I00
S'\x92\xf9H\x98\x81\xeb\x9f@'
p1805
tp1806
bag3
(g4
(I0
tp1807
g6
tp1808
Rp1809
(I1
(tg12
I00
S'S\xc1\xbd\xa7\x9a\x12\xa0@'
p1810
tp1811
bag3
(g4
(I0
tp1812
g6
tp1813
Rp1814
(I1
(tg12
I00
S'H\x84\xf3k\xd4.\xa0@'
p1815
tp1816
bag3
(g4
(I0
tp1817
g6
tp1818
Rp1819
(I1
(tg12
I00
S'D=\xea$\xd6K\xa0@'
p1820
tp1821
bag3
(g4
(I0
tp1822
g6
tp1823
Rp1824
(I1
(tg12
I00
S'\xf1\xfe\x83\x8e\x82k\xa0@'
p1825
tp1826
bag3
(g4
(I0
tp1827
g6
tp1828
Rp1829
(I1
(tg12
I00
S'26\xe3\xb3\xca\x92\xa0@'
p1830
tp1831
bag3
(g4
(I0
tp1832
g6
tp1833
Rp1834
(I1
(tg12
I00
S'\xf9\x8d\x85\xec\x14\xbe\xa0@'
p1835
tp1836
bag3
(g4
(I0
tp1837
g6
tp1838
Rp1839
(I1
(tg12
I00
S'@\x90@\xf7\xf3\xe9\xa0@'
p1840
tp1841
bag3
(g4
(I0
tp1842
g6
tp1843
Rp1844
(I1
(tg12
I00
S'\xa7\x85\xe2\xeb\xbe\x14\xa1@'
p1845
tp1846
bag3
(g4
(I0
tp1847
g6
tp1848
Rp1849
(I1
(tg12
I00
S'2nc\x0b\xf5<\xa1@'
p1850
tp1851
bag3
(g4
(I0
tp1852
g6
tp1853
Rp1854
(I1
(tg12
I00
S'Q\xf6r\xe0\xea_\xa1@'
p1855
tp1856
bag3
(g4
(I0
tp1857
g6
tp1858
Rp1859
(I1
(tg12
I00
S'W\xc6\xbbc\x9d\x80\xa1@'
p1860
tp1861
bag3
(g4
(I0
tp1862
g6
tp1863
Rp1864
(I1
(tg12
I00
S'\x86\xcdlG(\xa1\xa1@'
p1865
tp1866
bag3
(g4
(I0
tp1867
g6
tp1868
Rp1869
(I1
(tg12
I00
S'\x8b\xd8\xe2\xe3`\xc0\xa1@'
p1870
tp1871
bag3
(g4
(I0
tp1872
g6
tp1873
Rp1874
(I1
(tg12
I00
S'\x84NJh\xf5\xdd\xa1@'
p1875
tp1876
bag3
(g4
(I0
tp1877
g6
tp1878
Rp1879
(I1
(tg12
I00
S'\\\xae\xfc\x1e\xc4\xf9\xa1@'
p1880
tp1881
bag3
(g4
(I0
tp1882
g6
tp1883
Rp1884
(I1
(tg12
I00
S'\xd0\x16\xa0\xe5\xc2\x13\xa2@'
p1885
tp1886
bag3
(g4
(I0
tp1887
g6
tp1888
Rp1889
(I1
(tg12
I00
S'\x13bZ\xf5S,\xa2@'
p1890
tp1891
bag3
(g4
(I0
tp1892
g6
tp1893
Rp1894
(I1
(tg12
I00
S'T"\xac\xb2$D\xa2@'
p1895
tp1896
bag3
(g4
(I0
tp1897
g6
tp1898
Rp1899
(I1
(tg12
I00
S'\x9c\x91\x87!>[\xa2@'
p1900
tp1901
bag3
(g4
(I0
tp1902
g6
tp1903
Rp1904
(I1
(tg12
I00
S'm\xa7\\\xecRp\xa2@'
p1905
tp1906
bag3
(g4
(I0
tp1907
g6
tp1908
Rp1909
(I1
(tg12
I00
S'a\xfb\xb5\xc9R\x82\xa2@'
p1910
tp1911
bag3
(g4
(I0
tp1912
g6
tp1913
Rp1914
(I1
(tg12
I00
S'|\xdc|\xddH\x91\xa2@'
p1915
tp1916
bag3
(g4
(I0
tp1917
g6
tp1918
Rp1919
(I1
(tg12
I00
S')\xe6\x82\xfa\xb9\x9e\xa2@'
p1920
tp1921
bag3
(g4
(I0
tp1922
g6
tp1923
Rp1924
(I1
(tg12
I00
S'\x7f\x12\xf0\xac8\xab\xa2@'
p1925
tp1926
bag3
(g4
(I0
tp1927
g6
tp1928
Rp1929
(I1
(tg12
I00
S'\xd95\x91\xb2q\xb7\xa2@'
p1930
tp1931
bag3
(g4
(I0
tp1932
g6
tp1933
Rp1934
(I1
(tg12
I00
S'>}b\xe9\xdc\xc3\xa2@'
p1935
tp1936
bag3
(g4
(I0
tp1937
g6
tp1938
Rp1939
(I1
(tg12
I00
S'\xd9\xcd\xe1\x9e@\xcf\xa2@'
p1940
tp1941
bag3
(g4
(I0
tp1942
g6
tp1943
Rp1944
(I1
(tg12
I00
S'\x04\xb6\xb3\xab\x02\xd9\xa2@'
p1945
tp1946
bag3
(g4
(I0
tp1947
g6
tp1948
Rp1949
(I1
(tg12
I00
S'\x15\xfa\xbdg\x86\xe2\xa2@'
p1950
tp1951
bag3
(g4
(I0
tp1952
g6
tp1953
Rp1954
(I1
(tg12
I00
S']J\xd7ey\xed\xa2@'
p1955
tp1956
bag3
(g4
(I0
tp1957
g6
tp1958
Rp1959
(I1
(tg12
I00
S'\x9e\xa6\xfa\xbd\x1a\xfb\xa2@'
p1960
tp1961
bag3
(g4
(I0
tp1962
g6
tp1963
Rp1964
(I1
(tg12
I00
S')[8\xf5n\x0b\xa3@'
p1965
tp1966
bag3
(g4
(I0
tp1967
g6
tp1968
Rp1969
(I1
(tg12
I00
S'5\x9ei\xdcl\x1f\xa3@'
p1970
tp1971
bag3
(g4
(I0
tp1972
g6
tp1973
Rp1974
(I1
(tg12
I00
S'\xa7z\xa5\xb3\xb51\xa3@'
p1975
tp1976
bag3
(g4
(I0
tp1977
g6
tp1978
Rp1979
(I1
(tg12
I00
S'\xa8\xc0\x07r\xfc@\xa3@'
p1980
tp1981
bag3
(g4
(I0
tp1982
g6
tp1983
Rp1984
(I1
(tg12
I00
S'\xd1\xc5U\xf9\xcaM\xa3@'
p1985
tp1986
bag3
(g4
(I0
tp1987
g6
tp1988
Rp1989
(I1
(tg12
I00
S'@\x96\x13\x0f\x13X\xa3@'
p1990
tp1991
bag3
(g4
(I0
tp1992
g6
tp1993
Rp1994
(I1
(tg12
I00
S'X\xcd\x90\xf3\x84`\xa3@'
p1995
tp1996
bag3
(g4
(I0
tp1997
g6
tp1998
Rp1999
(I1
(tg12
I00
S'\xb6\xa7F?\xabh\xa3@'
p2000
tp2001
bag3
(g4
(I0
tp2002
g6
tp2003
Rp2004
(I1
(tg12
I00
S'\xa0\xb7\xa7\x1cQq\xa3@'
p2005
tp2006
bag3
(g4
(I0
tp2007
g6
tp2008
Rp2009
(I1
(tg12
I00
S'b\xeb\x03\xa8\xf7z\xa3@'
p2010
tp2011
bag3
(g4
(I0
tp2012
g6
tp2013
Rp2014
(I1
(tg12
I00
S'\x8e\xe3p)\x8e\x86\xa3@'
p2015
tp2016
bag3
(g4
(I0
tp2017
g6
tp2018
Rp2019
(I1
(tg12
I00
S'\xdb\x14\x99\xbf:\x93\xa3@'
p2020
tp2021
bag3
(g4
(I0
tp2022
g6
tp2023
Rp2024
(I1
(tg12
I00
S'\x17R!v\xc3\x9f\xa3@'
p2025
tp2026
bag3
(g4
(I0
tp2027
g6
tp2028
Rp2029
(I1
(tg12
I00
S'+l\x88\xcf:\xaa\xa3@'
p2030
tp2031
bag3
(g4
(I0
tp2032
g6
tp2033
Rp2034
(I1
(tg12
I00
S'\xae\x93\x9a|n\xb2\xa3@'
p2035
tp2036
bag3
(g4
(I0
tp2037
g6
tp2038
Rp2039
(I1
(tg12
I00
S'u\xcf\xb7\xf99\xba\xa3@'
p2040
tp2041
bag3
(g4
(I0
tp2042
g6
tp2043
Rp2044
(I1
(tg12
I00
S'\xcdR]\xc9\x82\xc2\xa3@'
p2045
tp2046
bag3
(g4
(I0
tp2047
g6
tp2048
Rp2049
(I1
(tg12
I00
S'4d\xea\xe3G\xca\xa3@'
p2050
tp2051
bag3
(g4
(I0
tp2052
g6
tp2053
Rp2054
(I1
(tg12
I00
S'\x98\xe9\xb0\xb3h\xd4\xa3@'
p2055
tp2056
bag3
(g4
(I0
tp2057
g6
tp2058
Rp2059
(I1
(tg12
I00
S'A\x1c\xf8u]\xde\xa3@'
p2060
tp2061
bag3
(g4
(I0
tp2062
g6
tp2063
Rp2064
(I1
(tg12
I00
S'\x11U\x08\xf9\xdc\xe7\xa3@'
p2065
tp2066
bag3
(g4
(I0
tp2067
g6
tp2068
Rp2069
(I1
(tg12
I00
S'\x0f\xcflz\xb3\xf0\xa3@'
p2070
tp2071
bag3
(g4
(I0
tp2072
g6
tp2073
Rp2074
(I1
(tg12
I00
S'\xc8\x11\xfb\x11\xe8\xf9\xa3@'
p2075
tp2076
bag3
(g4
(I0
tp2077
g6
tp2078
Rp2079
(I1
(tg12
I00
S'\xa6q\xc9\xb6\xde\x06\xa4@'
p2080
tp2081
bag3
(g4
(I0
tp2082
g6
tp2083
Rp2084
(I1
(tg12
I00
S')z\x83\x1c\xa2\x1e\xa4@'
p2085
tp2086
bag3
(g4
(I0
tp2087
g6
tp2088
Rp2089
(I1
(tg12
I00
S'\xe2\x1d,\xd9ZC\xa4@'
p2090
tp2091
bag3
(g4
(I0
tp2092
g6
tp2093
Rp2094
(I1
(tg12
I00
S'jPSHZp\xa4@'
p2095
tp2096
bag3
(g4
(I0
tp2097
g6
tp2098
Rp2099
(I1
(tg12
I00
S'QK\xa5\x1bz\xa9\xa4@'
p2100
tp2101
bag3
(g4
(I0
tp2102
g6
tp2103
Rp2104
(I1
(tg12
I00
S'\x0e\x98f\x81\xa5\xeb\xa4@'
p2105
tp2106
bag3
(g4
(I0
tp2107
g6
tp2108
Rp2109
(I1
(tg12
I00
S"\x9a\xccTk\xe1'\xa5@"
p2110
tp2111
bag3
(g4
(I0
tp2112
g6
tp2113
Rp2114
(I1
(tg12
I00
S'\xca\x1f\xce\x04g[\xa5@'
p2115
tp2116
bag3
(g4
(I0
tp2117
g6
tp2118
Rp2119
(I1
(tg12
I00
S'\xf6\x10P\xca\x1b\x89\xa5@'
p2120
tp2121
bag3
(g4
(I0
tp2122
g6
tp2123
Rp2124
(I1
(tg12
I00
S'\xc4\xbcF(\x91\xb4\xa5@'
p2125
tp2126
bag3
(g4
(I0
tp2127
g6
tp2128
Rp2129
(I1
(tg12
I00
S'7\xc1/T~\xe1\xa5@'
p2130
tp2131
bag3
(g4
(I0
tp2132
g6
tp2133
Rp2134
(I1
(tg12
I00
S'\x8e\r\xee\x18\xbf\x10\xa6@'
p2135
tp2136
bag3
(g4
(I0
tp2137
g6
tp2138
Rp2139
(I1
(tg12
I00
S'\x14\xd1o\xaf\xef@\xa6@'
p2140
tp2141
bag3
(g4
(I0
tp2142
g6
tp2143
Rp2144
(I1
(tg12
I00
S'\x93\xba\xdaOqq\xa6@'
p2145
tp2146
bag3
(g4
(I0
tp2147
g6
tp2148
Rp2149
(I1
(tg12
I00
S'\xe0\x1b\xce\xdf\x99\xa0\xa6@'
p2150
tp2151
bag3
(g4
(I0
tp2152
g6
tp2153
Rp2154
(I1
(tg12
I00
S'\x9a\xb0%}\x93\xcc\xa6@'
p2155
tp2156
bag3
(g4
(I0
tp2157
g6
tp2158
Rp2159
(I1
(tg12
I00
S"*+\xbd'\xe1\xf5\xa6@"
p2160
tp2161
bag3
(g4
(I0
tp2162
g6
tp2163
Rp2164
(I1
(tg12
I00
S'T\xbd\xce\xdap \xa7@'
p2165
tp2166
bag3
(g4
(I0
tp2167
g6
tp2168
Rp2169
(I1
(tg12
I00
S'\xbc\xc8\x0f\xaf\xc5Q\xa7@'
p2170
tp2171
bag3
(g4
(I0
tp2172
g6
tp2173
Rp2174
(I1
(tg12
I00
S'\x11nR\xa7\x83\x8c\xa7@'
p2175
tp2176
bag3
(g4
(I0
tp2177
g6
tp2178
Rp2179
(I1
(tg12
I00
S'\x0f\x82\x97\xe51\xcb\xa7@'
p2180
tp2181
bag3
(g4
(I0
tp2182
g6
tp2183
Rp2184
(I1
(tg12
I00
S'\x19\xcd\xb9r\x03\t\xa8@'
p2185
tp2186
bag3
(g4
(I0
tp2187
g6
tp2188
Rp2189
(I1
(tg12
I00
S'\xfc\x8f}{YB\xa8@'
p2190
tp2191
bag3
(g4
(I0
tp2192
g6
tp2193
Rp2194
(I1
(tg12
I00
S'\x8f\x00gV v\xa8@'
p2195
tp2196
bag3
(g4
(I0
tp2197
g6
tp2198
Rp2199
(I1
(tg12
I00
S'd)"\x97\xf7\xa4\xa8@'
p2200
tp2201
bag3
(g4
(I0
tp2202
g6
tp2203
Rp2204
(I1
(tg12
I00
S'\x83\xce"\x86@\xd1\xa8@'
p2205
tp2206
bag3
(g4
(I0
tp2207
g6
tp2208
Rp2209
(I1
(tg12
I00
S'x\x0c\xf8\x8c\t\x01\xa9@'
p2210
tp2211
bag3
(g4
(I0
tp2212
g6
tp2213
Rp2214
(I1
(tg12
I00
S'\xc5I)\xb3\xef2\xa9@'
p2215
tp2216
bag3
(g4
(I0
tp2217
g6
tp2218
Rp2219
(I1
(tg12
I00
S'\x1d\xefwu\x80a\xa9@'
p2220
tp2221
bag3
(g4
(I0
tp2222
g6
tp2223
Rp2224
(I1
(tg12
I00
S',\xf3N*F\x8b\xa9@'
p2225
tp2226
bag3
(g4
(I0
tp2227
g6
tp2228
Rp2229
(I1
(tg12
I00
S'\xbe"\xa4{m\xb1\xa9@'
p2230
tp2231
bag3
(g4
(I0
tp2232
g6
tp2233
Rp2234
(I1
(tg12
I00
S'\xb9\x16yB\xe0\xd3\xa9@'
p2235
tp2236
bag3
(g4
(I0
tp2237
g6
tp2238
Rp2239
(I1
(tg12
I00
S',l*q\x91\xf3\xa9@'
p2240
tp2241
bag3
(g4
(I0
tp2242
g6
tp2243
Rp2244
(I1
(tg12
I00
S'\x8cz\xb6\x8d\xc7\x12\xaa@'
p2245
tp2246
bag3
(g4
(I0
tp2247
g6
tp2248
Rp2249
(I1
(tg12
I00
S'\xf2n\x98\xe6i1\xaa@'
p2250
tp2251
bag3
(g4
(I0
tp2252
g6
tp2253
Rp2254
(I1
(tg12
I00
S't\xf6\xa2\xe8"P\xaa@'
p2255
tp2256
bag3
(g4
(I0
tp2257
g6
tp2258
Rp2259
(I1
(tg12
I00
S'\xb1\xab6s\x84o\xaa@'
p2260
tp2261
bag3
(g4
(I0
tp2262
g6
tp2263
Rp2264
(I1
(tg12
I00
S'\xec\xc0":\x14\x8f\xaa@'
p2265
tp2266
bag3
(g4
(I0
tp2267
g6
tp2268
Rp2269
(I1
(tg12
I00
S'/Tq\xc5d\xad\xaa@'
p2270
tp2271
bag3
(g4
(I0
tp2272
g6
tp2273
Rp2274
(I1
(tg12
I00
S'OU\x12\x05\x9e\xc9\xaa@'
p2275
tp2276
bag3
(g4
(I0
tp2277
g6
tp2278
Rp2279
(I1
(tg12
I00
S'H\xfb\xd7\x1a\xbd\xe5\xaa@'
p2280
tp2281
bag3
(g4
(I0
tp2282
g6
tp2283
Rp2284
(I1
(tg12
I00
S'\xde\x8f\x93\xfey\x08\xab@'
p2285
tp2286
bag3
(g4
(I0
tp2287
g6
tp2288
Rp2289
(I1
(tg12
I00
S'z"\x9a\xec\xeb9\xab@'
p2290
tp2291
bag3
(g4
(I0
tp2292
g6
tp2293
Rp2294
(I1
(tg12
I00
S'\x9fR\x89\x8aV}\xab@'
p2295
tp2296
bag3
(g4
(I0
tp2297
g6
tp2298
Rp2299
(I1
(tg12
I00
S'\xda\x1a\xf4\x80\x89\xce\xab@'
p2300
tp2301
bag3
(g4
(I0
tp2302
g6
tp2303
Rp2304
(I1
(tg12
I00
S"b\xe3\x8e\xd9\xb0'\xac@"
p2305
tp2306
bag3
(g4
(I0
tp2307
g6
tp2308
Rp2309
(I1
(tg12
I00
S'\x1b%\r~\x04\x89\xac@'
p2310
tp2311
bag3
(g4
(I0
tp2312
g6
tp2313
Rp2314
(I1
(tg12
I00
S'\xc5z\xca\x11\xf2\xf3\xac@'
p2315
tp2316
bag3
(g4
(I0
tp2317
g6
tp2318
Rp2319
(I1
(tg12
I00
S':!\xc3\xc1\x0bm\xad@'
p2320
tp2321
bag3
(g4
(I0
tp2322
g6
tp2323
Rp2324
(I1
(tg12
I00
S'\xc9\xef\x1fp\x1b\xe0\xad@'
p2325
tp2326
bag3
(g4
(I0
tp2327
g6
tp2328
Rp2329
(I1
(tg12
I00
S'\x08U\xc5\xb0\xe4Z\xae@'
p2330
tp2331
bag3
(g4
(I0
tp2332
g6
tp2333
Rp2334
(I1
(tg12
I00
S'G\xcf\x90\xe7\xe3\xd0\xae@'
p2335
tp2336
bag3
(g4
(I0
tp2337
g6
tp2338
Rp2339
(I1
(tg12
I00
S'\x88\x03\xd8\xe9\xc41\xaf@'
p2340
tp2341
bag3
(g4
(I0
tp2342
g6
tp2343
Rp2344
(I1
(tg12
I00
S'\xa6P(\x9c\xf0}\xaf@'
p2345
tp2346
bag3
(g4
(I0
tp2347
g6
tp2348
Rp2349
(I1
(tg12
I00
S'c1\xe4\x14\xd7\xb5\xaf@'
p2350
tp2351
bag3
(g4
(I0
tp2352
g6
tp2353
Rp2354
(I1
(tg12
I00
S'\xfb(\xa6B&\xdd\xaf@'
p2355
tp2356
bag3
(g4
(I0
tp2357
g6
tp2358
Rp2359
(I1
(tg12
I00
S'\xa0u]g\x1b\xfb\xaf@'
p2360
tp2361
bag3
(g4
(I0
tp2362
g6
tp2363
Rp2364
(I1
(tg12
I00
S"'k\xf5P\xf0\x0c\xb0@"
p2365
tp2366
bag3
(g4
(I0
tp2367
g6
tp2368
Rp2369
(I1
(tg12
I00
S'h7\xd8\x95\xeb\x1e\xb0@'
p2370
tp2371
bag3
(g4
(I0
tp2372
g6
tp2373
Rp2374
(I1
(tg12
I00
S'\xb7?X\xf8X3\xb0@'
p2375
tp2376
bag3
(g4
(I0
tp2377
g6
tp2378
Rp2379
(I1
(tg12
I00
S'\xcb@1\x9a\xeeF\xb0@'
p2380
tp2381
bag3
(g4
(I0
tp2382
g6
tp2383
Rp2384
(I1
(tg12
I00
S'x\xaa\t\x19\xfcX\xb0@'
p2385
tp2386
bag3
(g4
(I0
tp2387
g6
tp2388
Rp2389
(I1
(tg12
I00
S'\x16\x08\x01\xb7Uj\xb0@'
p2390
tp2391
bag3
(g4
(I0
tp2392
g6
tp2393
Rp2394
(I1
(tg12
I00
S'\x19\xda\x0c\xcfw{\xb0@'
p2395
tp2396
bag3
(g4
(I0
tp2397
g6
tp2398
Rp2399
(I1
(tg12
I00
S'\xe8lc3(\x8e\xb0@'
p2400
tp2401
bag3
(g4
(I0
tp2402
g6
tp2403
Rp2404
(I1
(tg12
I00
S'O\xf3_\xe2\xd4\xa2\xb0@'
p2405
tp2406
bag3
(g4
(I0
tp2407
g6
tp2408
Rp2409
(I1
(tg12
I00
S'c\xbe/\xaej\xb9\xb0@'
p2410
tp2411
basS'kin_s'
p2412
(lp2413
g3
(g4
(I0
tp2414
g6
tp2415
Rp2416
(I1
(tg12
I00
S'\x00\x00\x80O\xab\xf1 ?'
p2417
tp2418
bag3
(g4
(I0
tp2419
g6
tp2420
Rp2421
(I1
(tg12
I00
S'\x00\x00P4\xcb\xc4e?'
p2422
tp2423
bag3
(g4
(I0
tp2424
g6
tp2425
Rp2426
(I1
(tg12
I00
S'\x00\x00\x84x^\x15\x86?'
p2427
tp2428
bag3
(g4
(I0
tp2429
g6
tp2430
Rp2431
(I1
(tg12
I00
S'S\xd9\x1e\x19\x98\xfb\x9c?'
p2432
tp2433
bag3
(g4
(I0
tp2434
g6
tp2435
Rp2436
(I1
(tg12
I00
S'\x8d\xdf\xc8KE\xfd\xad?'
p2437
tp2438
bag3
(g4
(I0
tp2439
g6
tp2440
Rp2441
(I1
(tg12
I00
S'L\xff\x10!\xa2\xdb\xba?'
p2442
tp2443
bag3
(g4
(I0
tp2444
g6
tp2445
Rp2446
(I1
(tg12
I00
S'\xe0\xa2h\xb4\xafy\xc5?'
p2447
tp2448
bag3
(g4
(I0
tp2449
g6
tp2450
Rp2451
(I1
(tg12
I00
S'\x9b\xc7Y>A\x13\xce?'
p2452
tp2453
bag3
(g4
(I0
tp2454
g6
tp2455
Rp2456
(I1
(tg12
I00
S'u\x08nX\xc9\xf0\xd2?'
p2457
tp2458
bag3
(g4
(I0
tp2459
g6
tp2460
Rp2461
(I1
(tg12
I00
S'\x05\x11\xf9\x16\xef\x1a\xd6?'
p2462
tp2463
bag3
(g4
(I0
tp2464
g6
tp2465
Rp2466
(I1
(tg12
I00
S'\xdf\xd6\x0e\xb5\x0b\xd6\xd8?'
p2467
tp2468
bag3
(g4
(I0
tp2469
g6
tp2470
Rp2471
(I1
(tg12
I00
S'\x19^,t\xc29\xdc?'
p2472
tp2473
bag3
(g4
(I0
tp2474
g6
tp2475
Rp2476
(I1
(tg12
I00
S'\x9e\xf5\xb6\xf9F\t\xe1?'
p2477
tp2478
bag3
(g4
(I0
tp2479
g6
tp2480
Rp2481
(I1
(tg12
I00
S'\x14\xfc\x11\xe51\xf2\xe7?'
p2482
tp2483
bag3
(g4
(I0
tp2484
g6
tp2485
Rp2486
(I1
(tg12
I00
S'Z!\xcdo\xbb\xc6\xf2?'
p2487
tp2488
bag3
(g4
(I0
tp2489
g6
tp2490
Rp2491
(I1
(tg12
I00
S'\xe9\x7f\x02`L\xfc\xfc?'
p2492
tp2493
bag3
(g4
(I0
tp2494
g6
tp2495
Rp2496
(I1
(tg12
I00
S' \xc8\x93@b\x1f\x05@'
p2497
tp2498
bag3
(g4
(I0
tp2499
g6
tp2500
Rp2501
(I1
(tg12
I00
S',V\xaa\xb1\xd17\r@'
p2502
tp2503
bag3
(g4
(I0
tp2504
g6
tp2505
Rp2506
(I1
(tg12
I00
S'\x8a\x7f\xfdI\x0c1\x13@'
p2507
tp2508
bag3
(g4
(I0
tp2509
g6
tp2510
Rp2511
(I1
(tg12
I00
S'\xd6\xe2\x7fb\x00\x16\x18@'
p2512
tp2513
bag3
(g4
(I0
tp2514
g6
tp2515
Rp2516
(I1
(tg12
I00
S'(%\xb3U\xcd\xa7\x1c@'
p2517
tp2518
bag3
(g4
(I0
tp2519
g6
tp2520
Rp2521
(I1
(tg12
I00
S'\xabS\xad\xb4\xf5\xbb\x1f@'
p2522
tp2523
bag3
(g4
(I0
tp2524
g6
tp2525
Rp2526
(I1
(tg12
I00
S'\xafM\xa6\x161\xf0 @'
p2527
tp2528
bag3
(g4
(I0
tp2529
g6
tp2530
Rp2531
(I1
(tg12
I00
S'|\xe6\xa8\xc8&\xde!@'
p2532
tp2533
bag3
(g4
(I0
tp2534
g6
tp2535
Rp2536
(I1
(tg12
I00
S'\xce\x19-\xb0\xaf\xd7"@'
p2537
tp2538
bag3
(g4
(I0
tp2539
g6
tp2540
Rp2541
(I1
(tg12
I00
S'z\x16\x9a\xaa\xf6\r$@'
p2542
tp2543
bag3
(g4
(I0
tp2544
g6
tp2545
Rp2546
(I1
(tg12
I00
S'a\x8b\x81\xca\xee\xa4%@'
p2547
tp2548
bag3
(g4
(I0
tp2549
g6
tp2550
Rp2551
(I1
(tg12
I00
S"\x0c)\xaaN\xd0U'@"
p2552
tp2553
bag3
(g4
(I0
tp2554
g6
tp2555
Rp2556
(I1
(tg12
I00
S'\xa3\x99\x1f\xf4+\xbe(@'
p2557
tp2558
bag3
(g4
(I0
tp2559
g6
tp2560
Rp2561
(I1
(tg12
I00
S'\x17\x8d\x85\xf4\x00\xba)@'
p2562
tp2563
bag3
(g4
(I0
tp2564
g6
tp2565
Rp2566
(I1
(tg12
I00
S'O\xd0\xf8?\xa3j*@'
p2567
tp2568
bag3
(g4
(I0
tp2569
g6
tp2570
Rp2571
(I1
(tg12
I00
S'\x0f\xe7m5\xd4\xc6*@'
p2572
tp2573
bag3
(g4
(I0
tp2574
g6
tp2575
Rp2576
(I1
(tg12
I00
S')\x88\x8a\xf9\t\xfb*@'
p2577
tp2578
bag3
(g4
(I0
tp2579
g6
tp2580
Rp2581
(I1
(tg12
I00
S']\xd1_w\xef.+@'
p2582
tp2583
bag3
(g4
(I0
tp2584
g6
tp2585
Rp2586
(I1
(tg12
I00
S'\xa9V\x94\xc6jj+@'
p2587
tp2588
bag3
(g4
(I0
tp2589
g6
tp2590
Rp2591
(I1
(tg12
I00
S'\x0f\x8d\xee\xbeJ\xd1+@'
p2592
tp2593
bag3
(g4
(I0
tp2594
g6
tp2595
Rp2596
(I1
(tg12
I00
S'\xdd\xb3\x1a\xcd\xea|,@'
p2597
tp2598
bag3
(g4
(I0
tp2599
g6
tp2600
Rp2601
(I1
(tg12
I00
S':\xc2\x81\x8c\xa5\x84-@'
p2602
tp2603
bag3
(g4
(I0
tp2604
g6
tp2605
Rp2606
(I1
(tg12
I00
S'\x9f\xeay>(\xc8.@'
p2607
tp2608
bag3
(g4
(I0
tp2609
g6
tp2610
Rp2611
(I1
(tg12
I00
S'=\xdb\x9c\xb0~\xd2/@'
p2612
tp2613
bag3
(g4
(I0
tp2614
g6
tp2615
Rp2616
(I1
(tg12
I00
S'\xe5,\xf6\x00\xb4I0@'
p2617
tp2618
bag3
(g4
(I0
tp2619
g6
tp2620
Rp2621
(I1
(tg12
I00
S'\xba\xb7\xe4~\xe5\x990@'
p2622
tp2623
bag3
(g4
(I0
tp2624
g6
tp2625
Rp2626
(I1
(tg12
I00
S'\xc5?\x8d\xa5\xf3\xdb0@'
p2627
tp2628
bag3
(g4
(I0
tp2629
g6
tp2630
Rp2631
(I1
(tg12
I00
S'V\x91\x19\x1a\xda\x111@'
p2632
tp2633
bag3
(g4
(I0
tp2634
g6
tp2635
Rp2636
(I1
(tg12
I00
S'\x8b\xd5\xfdg\xbbN1@'
p2637
tp2638
bag3
(g4
(I0
tp2639
g6
tp2640
Rp2641
(I1
(tg12
I00
S'f\x18\xac\x7f\xe8\xd41@'
p2642
tp2643
bag3
(g4
(I0
tp2644
g6
tp2645
Rp2646
(I1
(tg12
I00
S'\xdf\xe7\xeb\x8e:\xdf2@'
p2647
tp2648
bag3
(g4
(I0
tp2649
g6
tp2650
Rp2651
(I1
(tg12
I00
S'W9d(O24@'
p2652
tp2653
bag3
(g4
(I0
tp2654
g6
tp2655
Rp2656
(I1
(tg12
I00
S'\x03\x13\xef#\xa6n5@'
p2657
tp2658
bag3
(g4
(I0
tp2659
g6
tp2660
Rp2661
(I1
(tg12
I00
S'\xb3\xed\x96\xff\x08_6@'
p2662
tp2663
bag3
(g4
(I0
tp2664
g6
tp2665
Rp2666
(I1
(tg12
I00
S'\x86u\xf9k\xe3\x1d7@'
p2667
tp2668
bag3
(g4
(I0
tp2669
g6
tp2670
Rp2671
(I1
(tg12
I00
S'q\xe1\x83c\xbc\xd57@'
p2672
tp2673
bag3
(g4
(I0
tp2674
g6
tp2675
Rp2676
(I1
(tg12
I00
S'\xc0\x0et;\xf4\xcd8@'
p2677
tp2678
bag3
(g4
(I0
tp2679
g6
tp2680
Rp2681
(I1
(tg12
I00
S'cD\xd3x\xee\xaa<@'
p2682
tp2683
bag3
(g4
(I0
tp2684
g6
tp2685
Rp2686
(I1
(tg12
I00
S'`\xfd\xde(\xd0fB@'
p2687
tp2688
bag3
(g4
(I0
tp2689
g6
tp2690
Rp2691
(I1
(tg12
I00
S'4\x95;J\xec\xcbF@'
p2692
tp2693
bag3
(g4
(I0
tp2694
g6
tp2695
Rp2696
(I1
(tg12
I00
S'~\x87\x117_\xb0I@'
p2697
tp2698
bag3
(g4
(I0
tp2699
g6
tp2700
Rp2701
(I1
(tg12
I00
S'\xa7\x83\xebf\xf27K@'
p2702
tp2703
bag3
(g4
(I0
tp2704
g6
tp2705
Rp2706
(I1
(tg12
I00
S'\xfb\xcel;^\xadL@'
p2707
tp2708
bag3
(g4
(I0
tp2709
g6
tp2710
Rp2711
(I1
(tg12
I00
S'F\xe3\xaah\x7f\xccN@'
p2712
tp2713
bag3
(g4
(I0
tp2714
g6
tp2715
Rp2716
(I1
(tg12
I00
S'\x986\x8fL\xd3mP@'
p2717
tp2718
bag3
(g4
(I0
tp2719
g6
tp2720
Rp2721
(I1
(tg12
I00
S'\xe4\xd5\xe2\x8b\x80"R@'
p2722
tp2723
bag3
(g4
(I0
tp2724
g6
tp2725
Rp2726
(I1
(tg12
I00
S'Od\xd9x@\xf4U@'
p2727
tp2728
bag3
(g4
(I0
tp2729
g6
tp2730
Rp2731
(I1
(tg12
I00
S'\x9dE\x83\xea\xf62Y@'
p2732
tp2733
bag3
(g4
(I0
tp2734
g6
tp2735
Rp2736
(I1
(tg12
I00
S'\xb1k\xf6\xf1\x0c\xd5Z@'
p2737
tp2738
bag3
(g4
(I0
tp2739
g6
tp2740
Rp2741
(I1
(tg12
I00
S'\xf3\x9c^\xd7o\x1e\\@'
p2742
tp2743
bag3
(g4
(I0
tp2744
g6
tp2745
Rp2746
(I1
(tg12
I00
S'\x86H\xf4s\xe5\xdd]@'
p2747
tp2748
bag3
(g4
(I0
tp2749
g6
tp2750
Rp2751
(I1
(tg12
I00
S'(`@/\xa3\xf2_@'
p2752
tp2753
bag3
(g4
(I0
tp2754
g6
tp2755
Rp2756
(I1
(tg12
I00
S'\xb2\x00\x12\x97\xed\xbc`@'
p2757
tp2758
bag3
(g4
(I0
tp2759
g6
tp2760
Rp2761
(I1
(tg12
I00
S'\xdb\xb43\x8f\xf6va@'
p2762
tp2763
bag3
(g4
(I0
tp2764
g6
tp2765
Rp2766
(I1
(tg12
I00
S'PF\x9c\x8f\xb4\x1dc@'
p2767
tp2768
bag3
(g4
(I0
tp2769
g6
tp2770
Rp2771
(I1
(tg12
I00
S'\xed\xa8J\xa1\xee[e@'
p2772
tp2773
bag3
(g4
(I0
tp2774
g6
tp2775
Rp2776
(I1
(tg12
I00
S'\xaf*\xb9\xfaADg@'
p2777
tp2778
bag3
(g4
(I0
tp2779
g6
tp2780
Rp2781
(I1
(tg12
I00
S'\xb3\xbcOy\x04Th@'
p2782
tp2783
bag3
(g4
(I0
tp2784
g6
tp2785
Rp2786
(I1
(tg12
I00
S'[83t\xaa\xf9h@'
p2787
tp2788
bag3
(g4
(I0
tp2789
g6
tp2790
Rp2791
(I1
(tg12
I00
S'\x8b\x84\xf0\x97\xc3\xbei@'
p2792
tp2793
bag3
(g4
(I0
tp2794
g6
tp2795
Rp2796
(I1
(tg12
I00
S'\xce\xc1/\x13\x01\x99j@'
p2797
tp2798
bag3
(g4
(I0
tp2799
g6
tp2800
Rp2801
(I1
(tg12
I00
S'\x80\xe8\xbfF\xe9Gk@'
p2802
tp2803
bag3
(g4
(I0
tp2804
g6
tp2805
Rp2806
(I1
(tg12
I00
S'B\xfd\x86\x8d\xf7\xefk@'
p2807
tp2808
bag3
(g4
(I0
tp2809
g6
tp2810
Rp2811
(I1
(tg12
I00
S')\x818\xf3H\xb3l@'
p2812
tp2813
bag3
(g4
(I0
tp2814
g6
tp2815
Rp2816
(I1
(tg12
I00
S'\xd1\\L\x94a\x88m@'
p2817
tp2818
bag3
(g4
(I0
tp2819
g6
tp2820
Rp2821
(I1
(tg12
I00
S'\xb0\xd4\xdbF\x11Dn@'
p2822
tp2823
bag3
(g4
(I0
tp2824
g6
tp2825
Rp2826
(I1
(tg12
I00
S'I\x00\xb3-\xf5\xdcn@'
p2827
tp2828
bag3
(g4
(I0
tp2829
g6
tp2830
Rp2831
(I1
(tg12
I00
S'h\xf0\xfa\t\x03no@'
p2832
tp2833
bag3
(g4
(I0
tp2834
g6
tp2835
Rp2836
(I1
(tg12
I00
S'+\xd16\x190\np@'
p2837
tp2838
bag3
(g4
(I0
tp2839
g6
tp2840
Rp2841
(I1
(tg12
I00
S'q\x8a\xf1\xff:\xa5p@'
p2842
tp2843
bag3
(g4
(I0
tp2844
g6
tp2845
Rp2846
(I1
(tg12
I00
S'b\x8ew\x94\x17\xc5q@'
p2847
tp2848
bag3
(g4
(I0
tp2849
g6
tp2850
Rp2851
(I1
(tg12
I00
S'\xcdV\x0c.\xca\xe7r@'
p2852
tp2853
bag3
(g4
(I0
tp2854
g6
tp2855
Rp2856
(I1
(tg12
I00
S'9/\xdf\xc8\xee\xc1s@'
p2857
tp2858
bag3
(g4
(I0
tp2859
g6
tp2860
Rp2861
(I1
(tg12
I00
S'*\xc9o"\x1cWt@'
p2862
tp2863
bag3
(g4
(I0
tp2864
g6
tp2865
Rp2866
(I1
(tg12
I00
S'_\xc1I\x91\x9a\xd0t@'
p2867
tp2868
bag3
(g4
(I0
tp2869
g6
tp2870
Rp2871
(I1
(tg12
I00
S'\xd7\x11\xa9\xab\xf1^u@'
p2872
tp2873
bag3
(g4
(I0
tp2874
g6
tp2875
Rp2876
(I1
(tg12
I00
S'\x17\xa6\x9f\x17\xd9)v@'
p2877
tp2878
bag3
(g4
(I0
tp2879
g6
tp2880
Rp2881
(I1
(tg12
I00
S'A\x8fy\xbc\x8eqw@'
p2882
tp2883
bag3
(g4
(I0
tp2884
g6
tp2885
Rp2886
(I1
(tg12
I00
S'\xc4[\x7f\x9e`-y@'
p2887
tp2888
bag3
(g4
(I0
tp2889
g6
tp2890
Rp2891
(I1
(tg12
I00
S'V\xe1\x8f\xbff\xa8z@'
p2892
tp2893
bag3
(g4
(I0
tp2894
g6
tp2895
Rp2896
(I1
(tg12
I00
S'\xfa\xbaLu<\xa7{@'
p2897
tp2898
bag3
(g4
(I0
tp2899
g6
tp2900
Rp2901
(I1
(tg12
I00
S'\xf9A\xf6\xaa\x13H|@'
p2902
tp2903
bag3
(g4
(I0
tp2904
g6
tp2905
Rp2906
(I1
(tg12
I00
S'\xcd\xe95\r\xe2\xc4|@'
p2907
tp2908
bag3
(g4
(I0
tp2909
g6
tp2910
Rp2911
(I1
(tg12
I00
S'W\xbd\xfb\xae\xcdE}@'
p2912
tp2913
bag3
(g4
(I0
tp2914
g6
tp2915
Rp2916
(I1
(tg12
I00
S'B}\xa7\xd2\x88\xd0}@'
p2917
tp2918
bag3
(g4
(I0
tp2919
g6
tp2920
Rp2921
(I1
(tg12
I00
S'\xff\x95\xa7\x1a\xd9x~@'
p2922
tp2923
bag3
(g4
(I0
tp2924
g6
tp2925
Rp2926
(I1
(tg12
I00
S"4'^\x1crY\x7f@"
p2927
tp2928
bag3
(g4
(I0
tp2929
g6
tp2930
Rp2931
(I1
(tg12
I00
S')\x01/r\xef\x10\x80@'
p2932
tp2933
bag3
(g4
(I0
tp2934
g6
tp2935
Rp2936
(I1
(tg12
I00
S'\xa4\xa3P8\xa2X\x80@'
p2937
tp2938
bag3
(g4
(I0
tp2939
g6
tp2940
Rp2941
(I1
(tg12
I00
S'\xbb\x1b9\xd1\xe6\x8d\x80@'
p2942
tp2943
bag3
(g4
(I0
tp2944
g6
tp2945
Rp2946
(I1
(tg12
I00
S'yxdv\xeb\xbb\x80@'
p2947
tp2948
bag3
(g4
(I0
tp2949
g6
tp2950
Rp2951
(I1
(tg12
I00
S'V\xd6\x80\xd6\xe9\xea\x80@'
p2952
tp2953
bag3
(g4
(I0
tp2954
g6
tp2955
Rp2956
(I1
(tg12
I00
S'\n\xea\xc5-&"\x81@'
p2957
tp2958
bag3
(g4
(I0
tp2959
g6
tp2960
Rp2961
(I1
(tg12
I00
S'\x01\xd9D\x86\x99y\x81@'
p2962
tp2963
bag3
(g4
(I0
tp2964
g6
tp2965
Rp2966
(I1
(tg12
I00
S'qLG?\xd2\x08\x82@'
p2967
tp2968
bag3
(g4
(I0
tp2969
g6
tp2970
Rp2971
(I1
(tg12
I00
S'\xf7-T\xe3\x1e\x97\x82@'
p2972
tp2973
bag3
(g4
(I0
tp2974
g6
tp2975
Rp2976
(I1
(tg12
I00
S'8\xb8\xde\x0b$\xf9\x82@'
p2977
tp2978
bag3
(g4
(I0
tp2979
g6
tp2980
Rp2981
(I1
(tg12
I00
S'\xcb\xf9\xfc)\x854\x83@'
p2982
tp2983
bag3
(g4
(I0
tp2984
g6
tp2985
Rp2986
(I1
(tg12
I00
S'\x7fhysA^\x83@'
p2987
tp2988
bag3
(g4
(I0
tp2989
g6
tp2990
Rp2991
(I1
(tg12
I00
S'\xe4&S]\x9e\x88\x83@'
p2992
tp2993
bag3
(g4
(I0
tp2994
g6
tp2995
Rp2996
(I1
(tg12
I00
S'\xf9I]\xc6\xa9\xb5\x83@'
p2997
tp2998
bag3
(g4
(I0
tp2999
g6
tp3000
Rp3001
(I1
(tg12
I00
S'V\x80\x15\x9cN\r\x84@'
p3002
tp3003
bag3
(g4
(I0
tp3004
g6
tp3005
Rp3006
(I1
(tg12
I00
S'\x07\x82\x14\xcc\xdf\xa4\x84@'
p3007
tp3008
bag3
(g4
(I0
tp3009
g6
tp3010
Rp3011
(I1
(tg12
I00
S'p%\xab\xaf\x07,\x85@'
p3012
tp3013
bag3
(g4
(I0
tp3014
g6
tp3015
Rp3016
(I1
(tg12
I00
S'\xbe\xf24j\xc8x\x85@'
p3017
tp3018
bag3
(g4
(I0
tp3019
g6
tp3020
Rp3021
(I1
(tg12
I00
S'\x0fJ\x81\x00\x01\x9d\x85@'
p3022
tp3023
bag3
(g4
(I0
tp3024
g6
tp3025
Rp3026
(I1
(tg12
I00
S'\xe5\xd2\xde\x96U\xb6\x85@'
p3027
tp3028
bag3
(g4
(I0
tp3029
g6
tp3030
Rp3031
(I1
(tg12
I00
S'\xe5X}z\xb5\xda\x85@'
p3032
tp3033
bag3
(g4
(I0
tp3034
g6
tp3035
Rp3036
(I1
(tg12
I00
S'c\x18\xd7\x01\x1a\xfd\x85@'
p3037
tp3038
bag3
(g4
(I0
tp3039
g6
tp3040
Rp3041
(I1
(tg12
I00
S')Q>\xdf\xd7\x17\x86@'
p3042
tp3043
bag3
(g4
(I0
tp3044
g6
tp3045
Rp3046
(I1
(tg12
I00
S'\x86t\xa7\xd0\x11G\x86@'
p3047
tp3048
bag3
(g4
(I0
tp3049
g6
tp3050
Rp3051
(I1
(tg12
I00
S'\xa3\xd2\xf7\xa3\xbe{\x86@'
p3052
tp3053
bag3
(g4
(I0
tp3054
g6
tp3055
Rp3056
(I1
(tg12
I00
S'\x98\xab\xd4\x12\xd8\x9c\x86@'
p3057
tp3058
bag3
(g4
(I0
tp3059
g6
tp3060
Rp3061
(I1
(tg12
I00
S')\x85\xbd\xbf\xed\xaf\x86@'
p3062
tp3063
bag3
(g4
(I0
tp3064
g6
tp3065
Rp3066
(I1
(tg12
I00
S'\xaf\xe96a^\xc3\x86@'
p3067
tp3068
bag3
(g4
(I0
tp3069
g6
tp3070
Rp3071
(I1
(tg12
I00
S'y\xf2\xc5Y8\xe5\x86@'
p3072
tp3073
bag3
(g4
(I0
tp3074
g6
tp3075
Rp3076
(I1
(tg12
I00
S'\x96\xfae\xf6g\x15\x87@'
p3077
tp3078
bag3
(g4
(I0
tp3079
g6
tp3080
Rp3081
(I1
(tg12
I00
S'ANo4d7\x87@'
p3082
tp3083
bag3
(g4
(I0
tp3084
g6
tp3085
Rp3086
(I1
(tg12
I00
S'\xa7mU\x1bgD\x87@'
p3087
tp3088
bag3
(g4
(I0
tp3089
g6
tp3090
Rp3091
(I1
(tg12
I00
S'#%aG=H\x87@'
p3092
tp3093
bag3
(g4
(I0
tp3094
g6
tp3095
Rp3096
(I1
(tg12
I00
S'\xfc>\x1a\xe2nN\x87@'
p3097
tp3098
bag3
(g4
(I0
tp3099
g6
tp3100
Rp3101
(I1
(tg12
I00
S'\xde\x8a\x08\x95lT\x87@'
p3102
tp3103
bag3
(g4
(I0
tp3104
g6
tp3105
Rp3106
(I1
(tg12
I00
S'U\xf2=)\x0cY\x87@'
p3107
tp3108
bag3
(g4
(I0
tp3109
g6
tp3110
Rp3111
(I1
(tg12
I00
S'\x1e\x18\xfc\xc6\xbdg\x87@'
p3112
tp3113
bag3
(g4
(I0
tp3114
g6
tp3115
Rp3116
(I1
(tg12
I00
S';9\xe7\xaeQ\x8b\x87@'
p3117
tp3118
bag3
(g4
(I0
tp3119
g6
tp3120
Rp3121
(I1
(tg12
I00
S'\xa4Ira6\xb9\x87@'
p3122
tp3123
bag3
(g4
(I0
tp3124
g6
tp3125
Rp3126
(I1
(tg12
I00
S'=\x86^\x03E\xde\x87@'
p3127
tp3128
bag3
(g4
(I0
tp3129
g6
tp3130
Rp3131
(I1
(tg12
I00
S'\xa7m\x83I\xf9\xec\x87@'
p3132
tp3133
bag3
(g4
(I0
tp3134
g6
tp3135
Rp3136
(I1
(tg12
I00
S'u\x80\x90\xcb\xa9\xf3\x87@'
p3137
tp3138
bag3
(g4
(I0
tp3139
g6
tp3140
Rp3141
(I1
(tg12
I00
S'Ei.\xeaQ\xfc\x87@'
p3142
tp3143
bag3
(g4
(I0
tp3144
g6
tp3145
Rp3146
(I1
(tg12
I00
S'\xa7\x1d3\xd1\xe7\x04\x88@'
p3147
tp3148
bag3
(g4
(I0
tp3149
g6
tp3150
Rp3151
(I1
(tg12
I00
S'\x1avQ%\xf2\x0c\x88@'
p3152
tp3153
bag3
(g4
(I0
tp3154
g6
tp3155
Rp3156
(I1
(tg12
I00
S'\xa6I\xa2\n\x86 \x88@'
p3157
tp3158
bag3
(g4
(I0
tp3159
g6
tp3160
Rp3161
(I1
(tg12
I00
S'\xd4}\xd3\x00qQ\x88@'
p3162
tp3163
bag3
(g4
(I0
tp3164
g6
tp3165
Rp3166
(I1
(tg12
I00
S'\x04\xf7\x1cSq\x9e\x88@'
p3167
tp3168
bag3
(g4
(I0
tp3169
g6
tp3170
Rp3171
(I1
(tg12
I00
S'v$\xbb\xbf)\xed\x88@'
p3172
tp3173
bag3
(g4
(I0
tp3174
g6
tp3175
Rp3176
(I1
(tg12
I00
S"\x16\xf2G\x1ax'\x89@"
p3177
tp3178
bag3
(g4
(I0
tp3179
g6
tp3180
Rp3181
(I1
(tg12
I00
S'6\xe8\xa7K\xadV\x89@'
p3182
tp3183
bag3
(g4
(I0
tp3184
g6
tp3185
Rp3186
(I1
(tg12
I00
S'\x88\xb3.3\xb0\x95\x89@'
p3187
tp3188
bag3
(g4
(I0
tp3189
g6
tp3190
Rp3191
(I1
(tg12
I00
S'k\xfb\xe9\x94@\xd4\x89@'
p3192
tp3193
bag3
(g4
(I0
tp3194
g6
tp3195
Rp3196
(I1
(tg12
I00
S'\xe4\xf4\xd8\x1f\xe7\xf5\x89@'
p3197
tp3198
bag3
(g4
(I0
tp3199
g6
tp3200
Rp3201
(I1
(tg12
I00
S'\x07\xf8}\x8c\xd85\x8a@'
p3202
tp3203
bag3
(g4
(I0
tp3204
g6
tp3205
Rp3206
(I1
(tg12
I00
S'\xd5E>=\x95\xf1\x8a@'
p3207
tp3208
bag3
(g4
(I0
tp3209
g6
tp3210
Rp3211
(I1
(tg12
I00
S'\x17CdN6\xf3\x8b@'
p3212
tp3213
bag3
(g4
(I0
tp3214
g6
tp3215
Rp3216
(I1
(tg12
I00
S'b\x89\x19^B\xcf\x8c@'
p3217
tp3218
bag3
(g4
(I0
tp3219
g6
tp3220
Rp3221
(I1
(tg12
I00
S' \xe5\xc2?\xfbS\x8d@'
p3222
tp3223
bag3
(g4
(I0
tp3224
g6
tp3225
Rp3226
(I1
(tg12
I00
S't\xe7\xe3{`\xab\x8d@'
p3227
tp3228
bag3
(g4
(I0
tp3229
g6
tp3230
Rp3231
(I1
(tg12
I00
S'v\x9a\xc3O6\n\x8e@'
p3232
tp3233
bag3
(g4
(I0
tp3234
g6
tp3235
Rp3236
(I1
(tg12
I00
S'\xfaEQ\xf9\x9c\x89\x8e@'
p3237
tp3238
bag3
(g4
(I0
tp3239
g6
tp3240
Rp3241
(I1
(tg12
I00
S'\xebS\xdc\x1a\xa0s\x8f@'
p3242
tp3243
bag3
(g4
(I0
tp3244
g6
tp3245
Rp3246
(I1
(tg12
I00
S'Q\x07E\x9e\x8e{\x90@'
p3247
tp3248
bag3
(g4
(I0
tp3249
g6
tp3250
Rp3251
(I1
(tg12
I00
S'\x7f\x0e\x01\xe9u`\x91@'
p3252
tp3253
bag3
(g4
(I0
tp3254
g6
tp3255
Rp3256
(I1
(tg12
I00
S'\x8ea*\xc1\xb84\x92@'
p3257
tp3258
bag3
(g4
(I0
tp3259
g6
tp3260
Rp3261
(I1
(tg12
I00
S'\xafS=l\xd2\xb9\x92@'
p3262
tp3263
bag3
(g4
(I0
tp3264
g6
tp3265
Rp3266
(I1
(tg12
I00
S'\xa7<\xfd\x08\xce\x00\x93@'
p3267
tp3268
bag3
(g4
(I0
tp3269
g6
tp3270
Rp3271
(I1
(tg12
I00
S'zf\x02 \xd08\x93@'
p3272
tp3273
bag3
(g4
(I0
tp3274
g6
tp3275
Rp3276
(I1
(tg12
I00
S'm\xee\x96r\x86r\x93@'
p3277
tp3278
bag3
(g4
(I0
tp3279
g6
tp3280
Rp3281
(I1
(tg12
I00
S"w~\xc7'\x8a\xd0\x93@"
p3282
tp3283
bag3
(g4
(I0
tp3284
g6
tp3285
Rp3286
(I1
(tg12
I00
S'\xf6\x16O\xfe\xed{\x94@'
p3287
tp3288
bag3
(g4
(I0
tp3289
g6
tp3290
Rp3291
(I1
(tg12
I00
S'\xa4I\x89@\xeb+\x95@'
p3292
tp3293
bag3
(g4
(I0
tp3294
g6
tp3295
Rp3296
(I1
(tg12
I00
S'\xf5\xc2z\x10\x07\xc1\x95@'
p3297
tp3298
bag3
(g4
(I0
tp3299
g6
tp3300
Rp3301
(I1
(tg12
I00
S'\xbc\x97\x91v#/\x96@'
p3302
tp3303
bag3
(g4
(I0
tp3304
g6
tp3305
Rp3306
(I1
(tg12
I00
S'\xa7[\xc4l\xaf\x7f\x96@'
p3307
tp3308
bag3
(g4
(I0
tp3309
g6
tp3310
Rp3311
(I1
(tg12
I00
S'\x92\xa3\xc5P\x06\xc6\x96@'
p3312
tp3313
bag3
(g4
(I0
tp3314
g6
tp3315
Rp3316
(I1
(tg12
I00
S'\x03\xa6k\xa38\r\x97@'
p3317
tp3318
bag3
(g4
(I0
tp3319
g6
tp3320
Rp3321
(I1
(tg12
I00
S'/\xd2\xeeh\xce\x8e\x97@'
p3322
tp3323
bag3
(g4
(I0
tp3324
g6
tp3325
Rp3326
(I1
(tg12
I00
S'\xb1\xd7.\xae\x9f\x89\x98@'
p3327
tp3328
bag3
(g4
(I0
tp3329
g6
tp3330
Rp3331
(I1
(tg12
I00
S'\x99F\xb0w\xe2\xaa\x99@'
p3332
tp3333
bag3
(g4
(I0
tp3334
g6
tp3335
Rp3336
(I1
(tg12
I00
S'?\xd9\xb9\xbd\xe6\xb7\x9a@'
p3337
tp3338
bag3
(g4
(I0
tp3339
g6
tp3340
Rp3341
(I1
(tg12
I00
S'4O*\x80?\x8e\x9b@'
p3342
tp3343
bag3
(g4
(I0
tp3344
g6
tp3345
Rp3346
(I1
(tg12
I00
S'-\x1at\xb1\x930\x9c@'
p3347
tp3348
bag3
(g4
(I0
tp3349
g6
tp3350
Rp3351
(I1
(tg12
I00
S'K/r\xf1?\xc2\x9c@'
p3352
tp3353
bag3
(g4
(I0
tp3354
g6
tp3355
Rp3356
(I1
(tg12
I00
S'\xa4\xf2`}.\x8b\x9d@'
p3357
tp3358
bag3
(g4
(I0
tp3359
g6
tp3360
Rp3361
(I1
(tg12
I00
S'`\xa2\x1b\x01\x02\x08\x9f@'
p3362
tp3363
bag3
(g4
(I0
tp3364
g6
tp3365
Rp3366
(I1
(tg12
I00
S'n\xe0\xf1iZ\x96\xa0@'
p3367
tp3368
bag3
(g4
(I0
tp3369
g6
tp3370
Rp3371
(I1
(tg12
I00
S'\x95\xa3\x8f\xbc\x8cn\xa1@'
p3372
tp3373
bag3
(g4
(I0
tp3374
g6
tp3375
Rp3376
(I1
(tg12
I00
S'\xb8J\x17\xd7\x92\xfb\xa1@'
p3377
tp3378
bag3
(g4
(I0
tp3379
g6
tp3380
Rp3381
(I1
(tg12
I00
S'\xdes\x8eQ\x9fw\xa2@'
p3382
tp3383
bag3
(g4
(I0
tp3384
g6
tp3385
Rp3386
(I1
(tg12
I00
S'n(\xcd,\xc7\xdf\xa2@'
p3387
tp3388
bag3
(g4
(I0
tp3389
g6
tp3390
Rp3391
(I1
(tg12
I00
S'\xfd\xd9\xa2?\xcd6\xa3@'
p3392
tp3393
bag3
(g4
(I0
tp3394
g6
tp3395
Rp3396
(I1
(tg12
I00
S')\xc1\xf0\xe8\xcb\x9a\xa3@'
p3397
tp3398
bag3
(g4
(I0
tp3399
g6
tp3400
Rp3401
(I1
(tg12
I00
S'\xc2\x843\xb9\x0b>\xa4@'
p3402
tp3403
bag3
(g4
(I0
tp3404
g6
tp3405
Rp3406
(I1
(tg12
I00
S'Y\x00\xbc\xaa\x07!\xa5@'
p3407
tp3408
bag3
(g4
(I0
tp3409
g6
tp3410
Rp3411
(I1
(tg12
I00
S'\x01Ae\x9a\xa8\xf0\xa5@'
p3412
tp3413
bag3
(g4
(I0
tp3414
g6
tp3415
Rp3416
(I1
(tg12
I00
S'\xa6*ux\x10\x90\xa6@'
p3417
tp3418
bag3
(g4
(I0
tp3419
g6
tp3420
Rp3421
(I1
(tg12
I00
S'\x13\x05`\xee(\x08\xa7@'
p3422
tp3423
bag3
(g4
(I0
tp3424
g6
tp3425
Rp3426
(I1
(tg12
I00
S'r\xc6\x97&\x10k\xa7@'
p3427
tp3428
bag3
(g4
(I0
tp3429
g6
tp3430
Rp3431
(I1
(tg12
I00
S'`\xe4\xa2\xc5\xdb\xc4\xa7@'
p3432
tp3433
bag3
(g4
(I0
tp3434
g6
tp3435
Rp3436
(I1
(tg12
I00
S'/c\xceS\x96\x1d\xa8@'
p3437
tp3438
bag3
(g4
(I0
tp3439
g6
tp3440
Rp3441
(I1
(tg12
I00
S'\xbcy:\xeb\xe5\x9d\xa8@'
p3442
tp3443
bag3
(g4
(I0
tp3444
g6
tp3445
Rp3446
(I1
(tg12
I00
S'{5Z\xa1!U\xa9@'
p3447
tp3448
bag3
(g4
(I0
tp3449
g6
tp3450
Rp3451
(I1
(tg12
I00
S'\xb9\xa9\xbbG8\x0e\xaa@'
p3452
tp3453
bag3
(g4
(I0
tp3454
g6
tp3455
Rp3456
(I1
(tg12
I00
S'l\xceR\x18\xf5\x9a\xaa@'
p3457
tp3458
bag3
(g4
(I0
tp3459
g6
tp3460
Rp3461
(I1
(tg12
I00
S'PuJ1\xdf\xe9\xaa@'
p3462
tp3463
bag3
(g4
(I0
tp3464
g6
tp3465
Rp3466
(I1
(tg12
I00
S'\xdf\x14\x8aD\xc6\x19\xab@'
p3467
tp3468
bag3
(g4
(I0
tp3469
g6
tp3470
Rp3471
(I1
(tg12
I00
S'\xd8V\x95w\x1fF\xab@'
p3472
tp3473
bag3
(g4
(I0
tp3474
g6
tp3475
Rp3476
(I1
(tg12
I00
S'\xfeb\x98\xb3\xd1r\xab@'
p3477
tp3478
bag3
(g4
(I0
tp3479
g6
tp3480
Rp3481
(I1
(tg12
I00
S'\xd5\xbd\x08r/\xb5\xab@'
p3482
tp3483
bag3
(g4
(I0
tp3484
g6
tp3485
Rp3486
(I1
(tg12
I00
S'\xf0\x9f\xb4\xd5\xdc5\xac@'
p3487
tp3488
bag3
(g4
(I0
tp3489
g6
tp3490
Rp3491
(I1
(tg12
I00
S'X\xad\xfb>F\xd6\xac@'
p3492
tp3493
bag3
(g4
(I0
tp3494
g6
tp3495
Rp3496
(I1
(tg12
I00
S'7\xff\x96?\xabh\xad@'
p3497
tp3498
bag3
(g4
(I0
tp3499
g6
tp3500
Rp3501
(I1
(tg12
I00
S'\xa8\x89*\x80N\xca\xad@'
p3502
tp3503
bag3
(g4
(I0
tp3504
g6
tp3505
Rp3506
(I1
(tg12
I00
S'\x8eJ\xbc\xbc\x91\x03\xae@'
p3507
tp3508
bag3
(g4
(I0
tp3509
g6
tp3510
Rp3511
(I1
(tg12
I00
S'\xcc\xc7z\x85\xcf8\xae@'
p3512
tp3513
bag3
(g4
(I0
tp3514
g6
tp3515
Rp3516
(I1
(tg12
I00
S'B\xba\x0f\x9b\xf9\x99\xae@'
p3517
tp3518
bag3
(g4
(I0
tp3519
g6
tp3520
Rp3521
(I1
(tg12
I00
S'\xd5y\xb8Y\x98~\xaf@'
p3522
tp3523
bag3
(g4
(I0
tp3524
g6
tp3525
Rp3526
(I1
(tg12
I00
S')\xfc]\xe3\xb9\x8a\xb0@'
p3527
tp3528
bag3
(g4
(I0
tp3529
g6
tp3530
Rp3531
(I1
(tg12
I00
S'\xde\xb0\xc3\xc7\xfd\x80\xb1@'
p3532
tp3533
bag3
(g4
(I0
tp3534
g6
tp3535
Rp3536
(I1
(tg12
I00
S'I\\\xb5_\xa0y\xb2@'
p3537
tp3538
bag3
(g4
(I0
tp3539
g6
tp3540
Rp3541
(I1
(tg12
I00
S' \xcf\xe6b\xc6C\xb3@'
p3542
tp3543
bag3
(g4
(I0
tp3544
g6
tp3545
Rp3546
(I1
(tg12
I00
S'<2\xfd$v\xc7\xb3@'
p3547
tp3548
bag3
(g4
(I0
tp3549
g6
tp3550
Rp3551
(I1
(tg12
I00
S'ub\x89\x8f\xcc\x17\xb4@'
p3552
tp3553
bag3
(g4
(I0
tp3554
g6
tp3555
Rp3556
(I1
(tg12
I00
S'o\xef\x80\x8b\xe3b\xb4@'
p3557
tp3558
bag3
(g4
(I0
tp3559
g6
tp3560
Rp3561
(I1
(tg12
I00
S'R\xba\xe22l\xe8\xb4@'
p3562
tp3563
bag3
(g4
(I0
tp3564
g6
tp3565
Rp3566
(I1
(tg12
I00
S'\xdc\xe7kaf\xa2\xb5@'
p3567
tp3568
bag3
(g4
(I0
tp3569
g6
tp3570
Rp3571
(I1
(tg12
I00
S'\xccw\x03\xdf\x1dF\xb6@'
p3572
tp3573
bag3
(g4
(I0
tp3574
g6
tp3575
Rp3576
(I1
(tg12
I00
S'\x84!\x05qT\xbf\xb6@'
p3577
tp3578
bag3
(g4
(I0
tp3579
g6
tp3580
Rp3581
(I1
(tg12
I00
S';\x02\xfc!\xf5\x12\xb7@'
p3582
tp3583
bag3
(g4
(I0
tp3584
g6
tp3585
Rp3586
(I1
(tg12
I00
S'\xa69z\xfdDT\xb7@'
p3587
tp3588
bag3
(g4
(I0
tp3589
g6
tp3590
Rp3591
(I1
(tg12
I00
S'\x8d\xfd\x1d\x1bF\x8c\xb7@'
p3592
tp3593
bag3
(g4
(I0
tp3594
g6
tp3595
Rp3596
(I1
(tg12
I00
S'\x97\x1co\x97\xe0\xbd\xb7@'
p3597
tp3598
bag3
(g4
(I0
tp3599
g6
tp3600
Rp3601
(I1
(tg12
I00
S'\xfa%\xbb7Z\xfe\xb7@'
p3602
tp3603
bag3
(g4
(I0
tp3604
g6
tp3605
Rp3606
(I1
(tg12
I00
S'\xde\xcd\xf5\xa5\xcdm\xb8@'
p3607
tp3608
bag3
(g4
(I0
tp3609
g6
tp3610
Rp3611
(I1
(tg12
I00
S'\xb0\x06\xee\xba\xfd\xfd\xb8@'
p3612
tp3613
bag3
(g4
(I0
tp3614
g6
tp3615
Rp3616
(I1
(tg12
I00
S'\xa9\xe9Y\xda<\x94\xb9@'
p3617
tp3618
bag3
(g4
(I0
tp3619
g6
tp3620
Rp3621
(I1
(tg12
I00
S'\x07\x8f\xfa\xf9\x06\x05\xba@'
p3622
tp3623
bag3
(g4
(I0
tp3624
g6
tp3625
Rp3626
(I1
(tg12
I00
S'U3\x0f\x05\x91O\xba@'
p3627
tp3628
bag3
(g4
(I0
tp3629
g6
tp3630
Rp3631
(I1
(tg12
I00
S'\xac@%F\xe3\x86\xba@'
p3632
tp3633
bag3
(g4
(I0
tp3634
g6
tp3635
Rp3636
(I1
(tg12
I00
S'\\\xdf\xa8\x19F\xc6\xba@'
p3637
tp3638
bag3
(g4
(I0
tp3639
g6
tp3640
Rp3641
(I1
(tg12
I00
S'%h\x10\xf1O@\xbb@'
p3642
tp3643
bag3
(g4
(I0
tp3644
g6
tp3645
Rp3646
(I1
(tg12
I00
S'\x86a:\t\xe2\x11\xbc@'
p3647
tp3648
bag3
(g4
(I0
tp3649
g6
tp3650
Rp3651
(I1
(tg12
I00
S'P!\n!A\x06\xbd@'
p3652
tp3653
bag3
(g4
(I0
tp3654
g6
tp3655
Rp3656
(I1
(tg12
I00
S'\xae)N\xc9\x11\xea\xbd@'
p3657
tp3658
bag3
(g4
(I0
tp3659
g6
tp3660
Rp3661
(I1
(tg12
I00
S'$\x85\xd6\x1d\xebt\xbe@'
p3662
tp3663
bag3
(g4
(I0
tp3664
g6
tp3665
Rp3666
(I1
(tg12
I00
S'\x84\xdcb\x88\xa1\xba\xbe@'
p3667
tp3668
bag3
(g4
(I0
tp3669
g6
tp3670
Rp3671
(I1
(tg12
I00
S'\xb7\xac\x18&+\xed\xbe@'
p3672
tp3673
bag3
(g4
(I0
tp3674
g6
tp3675
Rp3676
(I1
(tg12
I00
S"\xa8\x8d\xe4\x1bx'\xbf@"
p3677
tp3678
bag3
(g4
(I0
tp3679
g6
tp3680
Rp3681
(I1
(tg12
I00
S'(\x08\xe4V\x82\xb4\xbf@'
p3682
tp3683
bag3
(g4
(I0
tp3684
g6
tp3685
Rp3686
(I1
(tg12
I00
S'\xf3v]\xf1\x04\\\xc0@'
p3687
tp3688
bag3
(g4
(I0
tp3689
g6
tp3690
Rp3691
(I1
(tg12
I00
S'4\xb4Q\xf2\xb1\xde\xc0@'
p3692
tp3693
bag3
(g4
(I0
tp3694
g6
tp3695
Rp3696
(I1
(tg12
I00
S"E\xb4\xc8'B5\xc1@"
p3697
tp3698
bag3
(g4
(I0
tp3699
g6
tp3700
Rp3701
(I1
(tg12
I00
S'\xe1\xb7%\x80\x98i\xc1@'
p3702
tp3703
bag3
(g4
(I0
tp3704
g6
tp3705
Rp3706
(I1
(tg12
I00
S'O\x8a8\xd5t\x8f\xc1@'
p3707
tp3708
bag3
(g4
(I0
tp3709
g6
tp3710
Rp3711
(I1
(tg12
I00
S'm8|\x99z\xbc\xc1@'
p3712
tp3713
bag3
(g4
(I0
tp3714
g6
tp3715
Rp3716
(I1
(tg12
I00
S'\xb7f\xf8C\xe9\xfd\xc1@'
p3717
tp3718
bag3
(g4
(I0
tp3719
g6
tp3720
Rp3721
(I1
(tg12
I00
S'zs\x14\x0f7d\xc2@'
p3722
tp3723
bag3
(g4
(I0
tp3724
g6
tp3725
Rp3726
(I1
(tg12
I00
S'\xd2m\xb4\xf1_\xf0\xc2@'
p3727
tp3728
bag3
(g4
(I0
tp3729
g6
tp3730
Rp3731
(I1
(tg12
I00
S'uj\xd6\xbe\x10q\xc3@'
p3732
tp3733
bag3
(g4
(I0
tp3734
g6
tp3735
Rp3736
(I1
(tg12
I00
S'\xee\xb1\xdb\r\x11\xce\xc3@'
p3737
tp3738
bag3
(g4
(I0
tp3739
g6
tp3740
Rp3741
(I1
(tg12
I00
S'4.:\x1cI\x0f\xc4@'
p3742
tp3743
bag3
(g4
(I0
tp3744
g6
tp3745
Rp3746
(I1
(tg12
I00
S'\rwEd6A\xc4@'
p3747
tp3748
bag3
(g4
(I0
tp3749
g6
tp3750
Rp3751
(I1
(tg12
I00
S'\xc5\xc1\xe9\x8c\ns\xc4@'
p3752
tp3753
bag3
(g4
(I0
tp3754
g6
tp3755
Rp3756
(I1
(tg12
I00
S'\xa4\x14>\xda\x97\xb1\xc4@'
p3757
tp3758
bag3
(g4
(I0
tp3759
g6
tp3760
Rp3761
(I1
(tg12
I00
S'\x9b\x91\x8d\r\xf9\x1d\xc5@'
p3762
tp3763
bag3
(g4
(I0
tp3764
g6
tp3765
Rp3766
(I1
(tg12
I00
S'\xbf\xbd\xce\x11\xcf\xc4\xc5@'
p3767
tp3768
bag3
(g4
(I0
tp3769
g6
tp3770
Rp3771
(I1
(tg12
I00
S'.\xa8q\x9c!f\xc6@'
p3772
tp3773
bag3
(g4
(I0
tp3774
g6
tp3775
Rp3776
(I1
(tg12
I00
S'3\x97\xb9W%\xe0\xc6@'
p3777
tp3778
bag3
(g4
(I0
tp3779
g6
tp3780
Rp3781
(I1
(tg12
I00
S'(\r0\xb3\xa52\xc7@'
p3782
tp3783
bag3
(g4
(I0
tp3784
g6
tp3785
Rp3786
(I1
(tg12
I00
S'\xa5A.Q>m\xc7@'
p3787
tp3788
bag3
(g4
(I0
tp3789
g6
tp3790
Rp3791
(I1
(tg12
I00
S'\xa0\xf2\x8bM\x14\xa8\xc7@'
p3792
tp3793
bag3
(g4
(I0
tp3794
g6
tp3795
Rp3796
(I1
(tg12
I00
S'\x07i9x\xef\xfb\xc7@'
p3797
tp3798
bag3
(g4
(I0
tp3799
g6
tp3800
Rp3801
(I1
(tg12
I00
S'\xef\xb4z\xe7`\x8e\xc8@'
p3802
tp3803
bag3
(g4
(I0
tp3804
g6
tp3805
Rp3806
(I1
(tg12
I00
S'c\x15\x10$\x08h\xc9@'
p3807
tp3808
bag3
(g4
(I0
tp3809
g6
tp3810
Rp3811
(I1
(tg12
I00
S'{\x99N\xb8\x0b=\xca@'
p3812
tp3813
bag3
(g4
(I0
tp3814
g6
tp3815
Rp3816
(I1
(tg12
I00
S'\xbe\x03\x0clp\xe5\xca@'
p3817
tp3818
bag3
(g4
(I0
tp3819
g6
tp3820
Rp3821
(I1
(tg12
I00
S'\xd9\x1a\xc4\xbc\xc3`\xcb@'
p3822
tp3823
bag3
(g4
(I0
tp3824
g6
tp3825
Rp3826
(I1
(tg12
I00
S'\xe0\xd3\x92_#\xc2\xcb@'
p3827
tp3828
bag3
(g4
(I0
tp3829
g6
tp3830
Rp3831
(I1
(tg12
I00
S'%\x07f\xea\xe81\xcc@'
p3832
tp3833
bag3
(g4
(I0
tp3834
g6
tp3835
Rp3836
(I1
(tg12
I00
S'\x92p<\xe6t\xc8\xcc@'
p3837
tp3838
bag3
(g4
(I0
tp3839
g6
tp3840
Rp3841
(I1
(tg12
I00
S'\x12:HQ]\x93\xcd@'
p3842
tp3843
bag3
(g4
(I0
tp3844
g6
tp3845
Rp3846
(I1
(tg12
I00
S'>\xc5=%\xd1\x84\xce@'
p3847
tp3848
bag3
(g4
(I0
tp3849
g6
tp3850
Rp3851
(I1
(tg12
I00
S'\x0fbna_X\xcf@'
p3852
tp3853
bag3
(g4
(I0
tp3854
g6
tp3855
Rp3856
(I1
(tg12
I00
S'\xf2\xd5z\xea\xd8\x01\xd0@'
p3857
tp3858
bag3
(g4
(I0
tp3859
g6
tp3860
Rp3861
(I1
(tg12
I00
S'iy\xc57|G\xd0@'
p3862
tp3863
bag3
(g4
(I0
tp3864
g6
tp3865
Rp3866
(I1
(tg12
I00
S'\xaa3*}\xe2\x84\xd0@'
p3867
tp3868
bag3
(g4
(I0
tp3869
g6
tp3870
Rp3871
(I1
(tg12
I00
S'8\xaf\xb2\x7f\xba\xc1\xd0@'
p3872
tp3873
bag3
(g4
(I0
tp3874
g6
tp3875
Rp3876
(I1
(tg12
I00
S'\x8d\x8c\xbcR\x04\x06\xd1@'
p3877
tp3878
bag3
(g4
(I0
tp3879
g6
tp3880
Rp3881
(I1
(tg12
I00
S'F\xb1p\x8b\x08j\xd1@'
p3882
tp3883
bag3
(g4
(I0
tp3884
g6
tp3885
Rp3886
(I1
(tg12
I00
S'\n{wh\xac\xf5\xd1@'
p3887
tp3888
bag3
(g4
(I0
tp3889
g6
tp3890
Rp3891
(I1
(tg12
I00
S')Y\xe3\xf5l\x8e\xd2@'
p3892
tp3893
bag3
(g4
(I0
tp3894
g6
tp3895
Rp3896
(I1
(tg12
I00
S'\x1b\xbc\xb1\xd51\x1b\xd3@'
p3897
tp3898
bag3
(g4
(I0
tp3899
g6
tp3900
Rp3901
(I1
(tg12
I00
S'\xe8\xa3U\xfdj\x86\xd3@'
p3902
tp3903
bag3
(g4
(I0
tp3904
g6
tp3905
Rp3906
(I1
(tg12
I00
S'\x9fIr\xd0v\xd5\xd3@'
p3907
tp3908
bag3
(g4
(I0
tp3909
g6
tp3910
Rp3911
(I1
(tg12
I00
S'\x02\xdez;5\x1c\xd4@'
p3912
tp3913
bag3
(g4
(I0
tp3914
g6
tp3915
Rp3916
(I1
(tg12
I00
S'\xd9\xd9A\x924s\xd4@'
p3917
tp3918
bag3
(g4
(I0
tp3919
g6
tp3920
Rp3921
(I1
(tg12
I00
S'\xe2\xf3\xc8\xee&\n\xd5@'
p3922
tp3923
bag3
(g4
(I0
tp3924
g6
tp3925
Rp3926
(I1
(tg12
I00
S'\xb3tGh\x05\xe3\xd5@'
p3927
tp3928
bag3
(g4
(I0
tp3929
g6
tp3930
Rp3931
(I1
(tg12
I00
S'\x92\x07G\xb5\xeb\xb1\xd6@'
p3932
tp3933
bag3
(g4
(I0
tp3934
g6
tp3935
Rp3936
(I1
(tg12
I00
S'\x94\x90\x89\xb1;S\xd7@'
p3937
tp3938
bag3
(g4
(I0
tp3939
g6
tp3940
Rp3941
(I1
(tg12
I00
S'\xd3\x1cM\x15\x8b\xc0\xd7@'
p3942
tp3943
bag3
(g4
(I0
tp3944
g6
tp3945
Rp3946
(I1
(tg12
I00
S'b\x1d\xdf\x03\x8d\x08\xd8@'
p3947
tp3948
bag3
(g4
(I0
tp3949
g6
tp3950
Rp3951
(I1
(tg12
I00
S'T\xcc\r\xf2+C\xd8@'
p3952
tp3953
bag3
(g4
(I0
tp3954
g6
tp3955
Rp3956
(I1
(tg12
I00
S'I\xacX\xfdl\x8d\xd8@'
p3957
tp3958
bag3
(g4
(I0
tp3959
g6
tp3960
Rp3961
(I1
(tg12
I00
S'\x8fU\x0e\x805(\xd9@'
p3962
tp3963
bag3
(g4
(I0
tp3964
g6
tp3965
Rp3966
(I1
(tg12
I00
S'\xdfQ\xff\x04\xae\xff\xd9@'
p3967
tp3968
bag3
(g4
(I0
tp3969
g6
tp3970
Rp3971
(I1
(tg12
I00
S'\x18\xd4\xbb\xda\xf7\xa9\xda@'
p3972
tp3973
bag3
(g4
(I0
tp3974
g6
tp3975
Rp3976
(I1
(tg12
I00
S'\x97%\xed\x1d\xc6\x1c\xdb@'
p3977
tp3978
bag3
(g4
(I0
tp3979
g6
tp3980
Rp3981
(I1
(tg12
I00
S'R\x9c[\xcf|k\xdb@'
p3982
tp3983
bag3
(g4
(I0
tp3984
g6
tp3985
Rp3986
(I1
(tg12
I00
S'\x8e~\xdaF\xd5\xa5\xdb@'
p3987
tp3988
bag3
(g4
(I0
tp3989
g6
tp3990
Rp3991
(I1
(tg12
I00
S'\xc3\x1c\xdf\xe1\x9f\xe0\xdb@'
p3992
tp3993
bag3
(g4
(I0
tp3994
g6
tp3995
Rp3996
(I1
(tg12
I00
S'2"k\x12\xa0-\xdc@'
p3997
tp3998
bag3
(g4
(I0
tp3999
g6
tp4000
Rp4001
(I1
(tg12
I00
S'J\x7f\xf4Y6\xa9\xdc@'
p4002
tp4003
bag3
(g4
(I0
tp4004
g6
tp4005
Rp4006
(I1
(tg12
I00
S'\x8a\xe7\xa2\xb3\xf7D\xdd@'
p4007
tp4008
bag3
(g4
(I0
tp4009
g6
tp4010
Rp4011
(I1
(tg12
I00
S'I\x9f\x1b*\xe2\xc3\xdd@'
p4012
tp4013
bag3
(g4
(I0
tp4014
g6
tp4015
Rp4016
(I1
(tg12
I00
S'\x9d\xcdc\xa5\x97\x1f\xde@'
p4017
tp4018
bag3
(g4
(I0
tp4019
g6
tp4020
Rp4021
(I1
(tg12
I00
S'pW\xdc=\xdb\\\xde@'
p4022
tp4023
bag3
(g4
(I0
tp4024
g6
tp4025
Rp4026
(I1
(tg12
I00
S'+\xe2;\xc8\x15\x89\xde@'
p4027
tp4028
bag3
(g4
(I0
tp4029
g6
tp4030
Rp4031
(I1
(tg12
I00
S'\xaa<\xb4\xc28\xb4\xde@'
p4032
tp4033
bag3
(g4
(I0
tp4034
g6
tp4035
Rp4036
(I1
(tg12
I00
S'\x17\xa1\xde\xbd\x91\xef\xde@'
p4037
tp4038
bag3
(g4
(I0
tp4039
g6
tp4040
Rp4041
(I1
(tg12
I00
S'.\xf2\x08B\xe9]\xdf@'
p4042
tp4043
bag3
(g4
(I0
tp4044
g6
tp4045
Rp4046
(I1
(tg12
I00
S'\xec\xee-5\x8b\xfe\xdf@'
p4047
tp4048
bag3
(g4
(I0
tp4049
g6
tp4050
Rp4051
(I1
(tg12
I00
S'\xad[\xd9\x17bJ\xe0@'
p4052
tp4053
bag3
(g4
(I0
tp4054
g6
tp4055
Rp4056
(I1
(tg12
I00
S'\x7fXj{\xf1\x84\xe0@'
p4057
tp4058
bag3
(g4
(I0
tp4059
g6
tp4060
Rp4061
(I1
(tg12
I00
S'\x9dGM\x04\xbd\xab\xe0@'
p4062
tp4063
bag3
(g4
(I0
tp4064
g6
tp4065
Rp4066
(I1
(tg12
I00
S'\x18*\xcc\xadB\xc4\xe0@'
p4067
tp4068
bag3
(g4
(I0
tp4069
g6
tp4070
Rp4071
(I1
(tg12
I00
S'\xcc\xd3\xf9\xa5<\xd9\xe0@'
p4072
tp4073
bag3
(g4
(I0
tp4074
g6
tp4075
Rp4076
(I1
(tg12
I00
S'D\xb3_\x851\xf5\xe0@'
p4077
tp4078
bag3
(g4
(I0
tp4079
g6
tp4080
Rp4081
(I1
(tg12
I00
S'\x99E\xcd\x83_*\xe1@'
p4082
tp4083
bag3
(g4
(I0
tp4084
g6
tp4085
Rp4086
(I1
(tg12
I00
S'm\xdc\t`"{\xe1@'
p4087
tp4088
bag3
(g4
(I0
tp4089
g6
tp4090
Rp4091
(I1
(tg12
I00
S'\xa1/4\xa0\xba\xc9\xe1@'
p4092
tp4093
bag3
(g4
(I0
tp4094
g6
tp4095
Rp4096
(I1
(tg12
I00
S'\x12\x7fX\x18\xdb\x02\xe2@'
p4097
tp4098
bag3
(g4
(I0
tp4099
g6
tp4100
Rp4101
(I1
(tg12
I00
S'\x7f+\x7f\x1eJ$\xe2@'
p4102
tp4103
bag3
(g4
(I0
tp4104
g6
tp4105
Rp4106
(I1
(tg12
I00
S'\x85\xe2\xf9hH6\xe2@'
p4107
tp4108
bag3
(g4
(I0
tp4109
g6
tp4110
Rp4111
(I1
(tg12
I00
S'~M\x96\xa0\xe3C\xe2@'
p4112
tp4113
bag3
(g4
(I0
tp4114
g6
tp4115
Rp4116
(I1
(tg12
I00
S'\xd1\xe9x\xee\x9eW\xe2@'
p4117
tp4118
bag3
(g4
(I0
tp4119
g6
tp4120
Rp4121
(I1
(tg12
I00
S'ls\x06\xbb \x8c\xe2@'
p4122
tp4123
bag3
(g4
(I0
tp4124
g6
tp4125
Rp4126
(I1
(tg12
I00
S'\x8d\xb9\x1dl\xa1\xea\xe2@'
p4127
tp4128
bag3
(g4
(I0
tp4129
g6
tp4130
Rp4131
(I1
(tg12
I00
S'z\x84\xf6\xa1\xc1@\xe3@'
p4132
tp4133
bag3
(g4
(I0
tp4134
g6
tp4135
Rp4136
(I1
(tg12
I00
S'\xac\x80l *z\xe3@'
p4137
tp4138
bag3
(g4
(I0
tp4139
g6
tp4140
Rp4141
(I1
(tg12
I00
S'\x85P\x11~\x8e\x9a\xe3@'
p4142
tp4143
bag3
(g4
(I0
tp4144
g6
tp4145
Rp4146
(I1
(tg12
I00
S'\xa8\x05^\xe3\xa4\xad\xe3@'
p4147
tp4148
bag3
(g4
(I0
tp4149
g6
tp4150
Rp4151
(I1
(tg12
I00
S'($\xccQ\x08\xc4\xe3@'
p4152
tp4153
bag3
(g4
(I0
tp4154
g6
tp4155
Rp4156
(I1
(tg12
I00
S'\xcfy\xe3\xac\xb4\xf0\xe3@'
p4157
tp4158
bag3
(g4
(I0
tp4159
g6
tp4160
Rp4161
(I1
(tg12
I00
S'\xd2+\xf9\x05\xcaX\xe4@'
p4162
tp4163
bag3
(g4
(I0
tp4164
g6
tp4165
Rp4166
(I1
(tg12
I00
S'\xe6\xdd*M\x0b\xea\xe4@'
p4167
tp4168
bag3
(g4
(I0
tp4169
g6
tp4170
Rp4171
(I1
(tg12
I00
S'Gw\xb9\xd9\xa5Z\xe5@'
p4172
tp4173
bag3
(g4
(I0
tp4174
g6
tp4175
Rp4176
(I1
(tg12
I00
S'\xd1\x19}\xb7h\xa0\xe5@'
p4177
tp4178
bag3
(g4
(I0
tp4179
g6
tp4180
Rp4181
(I1
(tg12
I00
S'\xea\x82_\x0c\x1b\xce\xe5@'
p4182
tp4183
bag3
(g4
(I0
tp4184
g6
tp4185
Rp4186
(I1
(tg12
I00
S'\x96\x9d\x0b\x0c-\xea\xe5@'
p4187
tp4188
bag3
(g4
(I0
tp4189
g6
tp4190
Rp4191
(I1
(tg12
I00
S'\x9e_p\xc9*\xfe\xe5@'
p4192
tp4193
bag3
(g4
(I0
tp4194
g6
tp4195
Rp4196
(I1
(tg12
I00
S'\x93\xc7Z\x1e8\x12\xe6@'
p4197
tp4198
bag3
(g4
(I0
tp4199
g6
tp4200
Rp4201
(I1
(tg12
I00
S'\xa8\x01\xad\xb9~+\xe6@'
p4202
tp4203
bag3
(g4
(I0
tp4204
g6
tp4205
Rp4206
(I1
(tg12
I00
S')\x89]\xd5\xbaK\xe6@'
p4207
tp4208
bag3
(g4
(I0
tp4209
g6
tp4210
Rp4211
(I1
(tg12
I00
S'\xa8-\xc9X\xdck\xe6@'
p4212
tp4213
bag3
(g4
(I0
tp4214
g6
tp4215
Rp4216
(I1
(tg12
I00
S'\x89dW\xd4X\x8c\xe6@'
p4217
tp4218
bag3
(g4
(I0
tp4219
g6
tp4220
Rp4221
(I1
(tg12
I00
S'\x10\x0cP\xedR\xac\xe6@'
p4222
tp4223
bag3
(g4
(I0
tp4224
g6
tp4225
Rp4226
(I1
(tg12
I00
S'H\xb43p3\xcb\xe6@'
p4227
tp4228
bag3
(g4
(I0
tp4229
g6
tp4230
Rp4231
(I1
(tg12
I00
S'43\x8d\xaa\xc6\xe3\xe6@'
p4232
tp4233
bag3
(g4
(I0
tp4234
g6
tp4235
Rp4236
(I1
(tg12
I00
S'9\xcd\xac\xd4$\xf5\xe6@'
p4237
tp4238
bag3
(g4
(I0
tp4239
g6
tp4240
Rp4241
(I1
(tg12
I00
S'Z\x89kW\x85\x0e\xe7@'
p4242
tp4243
bag3
(g4
(I0
tp4244
g6
tp4245
Rp4246
(I1
(tg12
I00
S'\x11\x11o\x06A1\xe7@'
p4247
tp4248
bag3
(g4
(I0
tp4249
g6
tp4250
Rp4251
(I1
(tg12
I00
S'\xd0"F\xd5zW\xe7@'
p4252
tp4253
bag3
(g4
(I0
tp4254
g6
tp4255
Rp4256
(I1
(tg12
I00
S'\x9fN\xc9\x0f\xaa~\xe7@'
p4257
tp4258
bag3
(g4
(I0
tp4259
g6
tp4260
Rp4261
(I1
(tg12
I00
S'\xa1\xd0\x06\xfd\x86\xa7\xe7@'
p4262
tp4263
bag3
(g4
(I0
tp4264
g6
tp4265
Rp4266
(I1
(tg12
I00
S'\x1d\x95\xb6\xd8\xb3\xcb\xe7@'
p4267
tp4268
bag3
(g4
(I0
tp4269
g6
tp4270
Rp4271
(I1
(tg12
I00
S'\x19\xa4\xa4t\x14\xe7\xe7@'
p4272
tp4273
bag3
(g4
(I0
tp4274
g6
tp4275
Rp4276
(I1
(tg12
I00
S'\x16\xf9\xf3\x01\xd5\xfb\xe7@'
p4277
tp4278
bag3
(g4
(I0
tp4279
g6
tp4280
Rp4281
(I1
(tg12
I00
S'\xa85H\xfaf\x12\xe8@'
p4282
tp4283
bag3
(g4
(I0
tp4284
g6
tp4285
Rp4286
(I1
(tg12
I00
S'\x95\xb4\xb0\xb8\x061\xe8@'
p4287
tp4288
bag3
(g4
(I0
tp4289
g6
tp4290
Rp4291
(I1
(tg12
I00
S'\x84\xa8\xc7\xb7\xf6X\xe8@'
p4292
tp4293
bag3
(g4
(I0
tp4294
g6
tp4295
Rp4296
(I1
(tg12
I00
S'\xe5\xb2~\xb7(\x8b\xe8@'
p4297
tp4298
bag3
(g4
(I0
tp4299
g6
tp4300
Rp4301
(I1
(tg12
I00
S'\x93\xa3\xdc\n\xca\xc0\xe8@'
p4302
tp4303
bag3
(g4
(I0
tp4304
g6
tp4305
Rp4306
(I1
(tg12
I00
S'SB!\x88\xa3\xf7\xe8@'
p4307
tp4308
bag3
(g4
(I0
tp4309
g6
tp4310
Rp4311
(I1
(tg12
I00
S',V\xb7\x05\xac-\xe9@'
p4312
tp4313
bag3
(g4
(I0
tp4314
g6
tp4315
Rp4316
(I1
(tg12
I00
S'\x08"\xd1\xe3"d\xe9@'
p4317
tp4318
bag3
(g4
(I0
tp4319
g6
tp4320
Rp4321
(I1
(tg12
I00
S'\xb1\x99\xba\xe4Z\x9f\xe9@'
p4322
tp4323
bag3
(g4
(I0
tp4324
g6
tp4325
Rp4326
(I1
(tg12
I00
S"\x1b[#'S\xe5\xe9@"
p4327
tp4328
bag3
(g4
(I0
tp4329
g6
tp4330
Rp4331
(I1
(tg12
I00
S'b:\x0eWF0\xea@'
p4332
tp4333
bag3
(g4
(I0
tp4334
g6
tp4335
Rp4336
(I1
(tg12
I00
S'@\xcc\x01\x91e{\xea@'
p4337
tp4338
bag3
(g4
(I0
tp4339
g6
tp4340
Rp4341
(I1
(tg12
I00
S'\r\x04\xf3\xfe\xa3\xd1\xea@'
p4342
tp4343
bag3
(g4
(I0
tp4344
g6
tp4345
Rp4346
(I1
(tg12
I00
S'\xe2=*\xfa\x98;\xeb@'
p4347
tp4348
bag3
(g4
(I0
tp4349
g6
tp4350
Rp4351
(I1
(tg12
I00
S'\x87\xc8\xbc\x82l\xbd\xeb@'
p4352
tp4353
bag3
(g4
(I0
tp4354
g6
tp4355
Rp4356
(I1
(tg12
I00
S'\xe1\xfd\xa4\xa1\xc4[\xec@'
p4357
tp4358
bag3
(g4
(I0
tp4359
g6
tp4360
Rp4361
(I1
(tg12
I00
S'h\x01\x90Z(\x1a\xed@'
p4362
tp4363
bag3
(g4
(I0
tp4364
g6
tp4365
Rp4366
(I1
(tg12
I00
S'\x84\xb3\x9c\xa5\xc9\xe5\xed@'
p4367
tp4368
bag3
(g4
(I0
tp4369
g6
tp4370
Rp4371
(I1
(tg12
I00
S'\xbcE\xfa\x02\xfd\xb6\xee@'
p4372
tp4373
bag3
(g4
(I0
tp4374
g6
tp4375
Rp4376
(I1
(tg12
I00
S'\xee\xb1\x9c\x9fM\x87\xef@'
p4377
tp4378
bag3
(g4
(I0
tp4379
g6
tp4380
Rp4381
(I1
(tg12
I00
S'l\r\x08\x0c\xce#\xf0@'
p4382
tp4383
bag3
(g4
(I0
tp4384
g6
tp4385
Rp4386
(I1
(tg12
I00
S'\xb2Y/m\x18|\xf0@'
p4387
tp4388
bag3
(g4
(I0
tp4389
g6
tp4390
Rp4391
(I1
(tg12
I00
S'i#\x90\x01\x16\xd2\xf0@'
p4392
tp4393
bag3
(g4
(I0
tp4394
g6
tp4395
Rp4396
(I1
(tg12
I00
S'"\xe4\xba|\xa9&\xf1@'
p4397
tp4398
bag3
(g4
(I0
tp4399
g6
tp4400
Rp4401
(I1
(tg12
I00
S'X\xceM\x8a\xfbs\xf1@'
p4402
tp4403
bag3
(g4
(I0
tp4404
g6
tp4405
Rp4406
(I1
(tg12
I00
S'P\xfe\xc0\xb3\x8b\xba\xf1@'
p4407
tp4408
bag3
(g4
(I0
tp4409
g6
tp4410
Rp4411
(I1
(tg12
I00
S'l\xbe\xb7P\xff\x00\xf2@'
p4412
tp4413
bag3
(g4
(I0
tp4414
g6
tp4415
Rp4416
(I1
(tg12
I00
S'N\xdaH6\xce@\xf2@'
p4417
tp4418
bag3
(g4
(I0
tp4419
g6
tp4420
Rp4421
(I1
(tg12
I00
S'\x0e\xd0\x87D\xe3r\xf2@'
p4422
tp4423
bag3
(g4
(I0
tp4424
g6
tp4425
Rp4426
(I1
(tg12
I00
S'\x89\xe9\xd6\x12\xfb\xa0\xf2@'
p4427
tp4428
bag3
(g4
(I0
tp4429
g6
tp4430
Rp4431
(I1
(tg12
I00
S'HS\xeb\xc3o\xcd\xf2@'
p4432
tp4433
bag3
(g4
(I0
tp4434
g6
tp4435
Rp4436
(I1
(tg12
I00
S'\xafm9\xde\xdd\xef\xf2@'
p4437
tp4438
bag3
(g4
(I0
tp4439
g6
tp4440
Rp4441
(I1
(tg12
I00
S'\x94\xf7\x06\xbd\x89\x1d\xf3@'
p4442
tp4443
bag3
(g4
(I0
tp4444
g6
tp4445
Rp4446
(I1
(tg12
I00
S'\xd7\x99\xc9\xf89\\\xf3@'
p4447
tp4448
bag3
(g4
(I0
tp4449
g6
tp4450
Rp4451
(I1
(tg12
I00
S'K\xadz\xad/\x9c\xf3@'
p4452
tp4453
bag3
(g4
(I0
tp4454
g6
tp4455
Rp4456
(I1
(tg12
I00
S'\x1c\x8aL+n\xc9\xf3@'
p4457
tp4458
bag3
(g4
(I0
tp4459
g6
tp4460
Rp4461
(I1
(tg12
I00
S'\x95\x8b\xf90]\xe0\xf3@'
p4462
tp4463
bag3
(g4
(I0
tp4464
g6
tp4465
Rp4466
(I1
(tg12
I00
S'\xf6N\x82\xe1\xc3\xed\xf3@'
p4467
tp4468
bag3
(g4
(I0
tp4469
g6
tp4470
Rp4471
(I1
(tg12
I00
S'\xba\xe9/\x9f\x9c\xf9\xf3@'
p4472
tp4473
bag3
(g4
(I0
tp4474
g6
tp4475
Rp4476
(I1
(tg12
I00
S'-\xc8\x86{\x0f\x07\xf4@'
p4477
tp4478
bag3
(g4
(I0
tp4479
g6
tp4480
Rp4481
(I1
(tg12
I00
S'3X\xf6) #\xf4@'
p4482
tp4483
bag3
(g4
(I0
tp4484
g6
tp4485
Rp4486
(I1
(tg12
I00
S'\xcb%I2\xfbS\xf4@'
p4487
tp4488
bag3
(g4
(I0
tp4489
g6
tp4490
Rp4491
(I1
(tg12
I00
S'k\xf23,h\x81\xf4@'
p4492
tp4493
bag3
(g4
(I0
tp4494
g6
tp4495
Rp4496
(I1
(tg12
I00
S'w\xb6\xa7:\xc4\xa3\xf4@'
p4497
tp4498
bag3
(g4
(I0
tp4499
g6
tp4500
Rp4501
(I1
(tg12
I00
S'\xb0\x01F^z\xbd\xf4@'
p4502
tp4503
bag3
(g4
(I0
tp4504
g6
tp4505
Rp4506
(I1
(tg12
I00
S'\x9fJ\x89\x10\xad\xd1\xf4@'
p4507
tp4508
bag3
(g4
(I0
tp4509
g6
tp4510
Rp4511
(I1
(tg12
I00
S'*\xa1\xaa\xba\x90\xe4\xf4@'
p4512
tp4513
bag3
(g4
(I0
tp4514
g6
tp4515
Rp4516
(I1
(tg12
I00
S'KXZ\xe0\x82\xfa\xf4@'
p4517
tp4518
bag3
(g4
(I0
tp4519
g6
tp4520
Rp4521
(I1
(tg12
I00
S'\x0fLS\xff\x9f\x19\xf5@'
p4522
tp4523
bag3
(g4
(I0
tp4524
g6
tp4525
Rp4526
(I1
(tg12
I00
S'y9\x8e\x80\\A\xf5@'
p4527
tp4528
bag3
(g4
(I0
tp4529
g6
tp4530
Rp4531
(I1
(tg12
I00
S',\x87)f\xa6g\xf5@'
p4532
tp4533
bag3
(g4
(I0
tp4534
g6
tp4535
Rp4536
(I1
(tg12
I00
S'\x07\x93\x19\x0f\t\x8a\xf5@'
p4537
tp4538
bag3
(g4
(I0
tp4539
g6
tp4540
Rp4541
(I1
(tg12
I00
S'\xfc\xa1z\x94\xf9\xa8\xf5@'
p4542
tp4543
bag3
(g4
(I0
tp4544
g6
tp4545
Rp4546
(I1
(tg12
I00
S'K\xcc^\xe7\xde\xc4\xf5@'
p4547
tp4548
bag3
(g4
(I0
tp4549
g6
tp4550
Rp4551
(I1
(tg12
I00
S'\xea74Z\x03\xde\xf5@'
p4552
tp4553
bag3
(g4
(I0
tp4554
g6
tp4555
Rp4556
(I1
(tg12
I00
S'\x8c<\xfd\xc1\xe3\xf8\xf5@'
p4557
tp4558
bag3
(g4
(I0
tp4559
g6
tp4560
Rp4561
(I1
(tg12
I00
S'Om`\xb40$\xf6@'
p4562
tp4563
bag3
(g4
(I0
tp4564
g6
tp4565
Rp4566
(I1
(tg12
I00
S'\x11#\x84,\xfda\xf6@'
p4567
tp4568
bag3
(g4
(I0
tp4569
g6
tp4570
Rp4571
(I1
(tg12
I00
S'\xab\x99\xfb\xcd4\xa3\xf6@'
p4572
tp4573
bag3
(g4
(I0
tp4574
g6
tp4575
Rp4576
(I1
(tg12
I00
S'\x14m\xc8qR\xdd\xf6@'
p4577
tp4578
bag3
(g4
(I0
tp4579
g6
tp4580
Rp4581
(I1
(tg12
I00
S'i?\xdbs\xda\t\xf7@'
p4582
tp4583
bag3
(g4
(I0
tp4584
g6
tp4585
Rp4586
(I1
(tg12
I00
S'\x1e\xc3\xea\x12\xbd+\xf7@'
p4587
tp4588
bag3
(g4
(I0
tp4589
g6
tp4590
Rp4591
(I1
(tg12
I00
S'\x1eiy\xf0.L\xf7@'
p4592
tp4593
bag3
(g4
(I0
tp4594
g6
tp4595
Rp4596
(I1
(tg12
I00
S'FF\x02\x9c\x9dv\xf7@'
p4597
tp4598
bag3
(g4
(I0
tp4599
g6
tp4600
Rp4601
(I1
(tg12
I00
S'\xa8\xc5%\xa5/\xbd\xf7@'
p4602
tp4603
bag3
(g4
(I0
tp4604
g6
tp4605
Rp4606
(I1
(tg12
I00
S'\x16w\\\xf0B\x18\xf8@'
p4607
tp4608
bag3
(g4
(I0
tp4609
g6
tp4610
Rp4611
(I1
(tg12
I00
S'\xdf\xf2\x99vHo\xf8@'
p4612
tp4613
bag3
(g4
(I0
tp4614
g6
tp4615
Rp4616
(I1
(tg12
I00
S'\xa0\xc15(\xd6\xbd\xf8@'
p4617
tp4618
bag3
(g4
(I0
tp4619
g6
tp4620
Rp4621
(I1
(tg12
I00
S'I\xf9f\rt\x07\xf9@'
p4622
tp4623
bag3
(g4
(I0
tp4624
g6
tp4625
Rp4626
(I1
(tg12
I00
S'D\x91\x19y\xd6J\xf9@'
p4627
tp4628
bag3
(g4
(I0
tp4629
g6
tp4630
Rp4631
(I1
(tg12
I00
S'\x9f\xc2\x9d\xa9\xfd\x89\xf9@'
p4632
tp4633
bag3
(g4
(I0
tp4634
g6
tp4635
Rp4636
(I1
(tg12
I00
S'H\xed\xd6%\x16\xcb\xf9@'
p4637
tp4638
bag3
(g4
(I0
tp4639
g6
tp4640
Rp4641
(I1
(tg12
I00
S'\xb5\x003\x1f\xa2\x16\xfa@'
p4642
tp4643
bag3
(g4
(I0
tp4644
g6
tp4645
Rp4646
(I1
(tg12
I00
S'\x174\\\x06\xcaj\xfa@'
p4647
tp4648
bag3
(g4
(I0
tp4649
g6
tp4650
Rp4651
(I1
(tg12
I00
S'\rE\x9b\x10W\xb7\xfa@'
p4652
tp4653
bag3
(g4
(I0
tp4654
g6
tp4655
Rp4656
(I1
(tg12
I00
S'\x82;\x14\xabv\xf9\xfa@'
p4657
tp4658
bag3
(g4
(I0
tp4659
g6
tp4660
Rp4661
(I1
(tg12
I00
S'Zz4\x94\x062\xfb@'
p4662
tp4663
bag3
(g4
(I0
tp4664
g6
tp4665
Rp4666
(I1
(tg12
I00
S'\xfdf\x16\xbd\x97a\xfb@'
p4667
tp4668
bag3
(g4
(I0
tp4669
g6
tp4670
Rp4671
(I1
(tg12
I00
S'\xea3\xbb+\x02\x8b\xfb@'
p4672
tp4673
bag3
(g4
(I0
tp4674
g6
tp4675
Rp4676
(I1
(tg12
I00
S'5&\x88\xad\xfc\xb6\xfb@'
p4677
tp4678
bag3
(g4
(I0
tp4679
g6
tp4680
Rp4681
(I1
(tg12
I00
S'y\xea\xe7\xc3=\xf7\xfb@'
p4682
tp4683
bag3
(g4
(I0
tp4684
g6
tp4685
Rp4686
(I1
(tg12
I00
S'\x89\x01F\x19\xd2P\xfc@'
p4687
tp4688
bag3
(g4
(I0
tp4689
g6
tp4690
Rp4691
(I1
(tg12
I00
S'\xdc(\xee\n\x8b\xb0\xfc@'
p4692
tp4693
bag3
(g4
(I0
tp4694
g6
tp4695
Rp4696
(I1
(tg12
I00
S'\xe6\x06~\x03@\r\xfd@'
p4697
tp4698
bag3
(g4
(I0
tp4699
g6
tp4700
Rp4701
(I1
(tg12
I00
S'\xa2\xcbs_ka\xfd@'
p4702
tp4703
bag3
(g4
(I0
tp4704
g6
tp4705
Rp4706
(I1
(tg12
I00
S'\xe3O\xc9\xcdb\xae\xfd@'
p4707
tp4708
bag3
(g4
(I0
tp4709
g6
tp4710
Rp4711
(I1
(tg12
I00
S'W\xfe\xec\xb9<\xf9\xfd@'
p4712
tp4713
bag3
(g4
(I0
tp4714
g6
tp4715
Rp4716
(I1
(tg12
I00
S'\xe89>\xc4\xbaI\xfe@'
p4717
tp4718
bag3
(g4
(I0
tp4719
g6
tp4720
Rp4721
(I1
(tg12
I00
S'V\x96I\xe5)\xb6\xfe@'
p4722
tp4723
bag3
(g4
(I0
tp4724
g6
tp4725
Rp4726
(I1
(tg12
I00
S'J\xa5\xec\x8a\x82.\xff@'
p4727
tp4728
bag3
(g4
(I0
tp4729
g6
tp4730
Rp4731
(I1
(tg12
I00
S'\x12LP\xcfX\x8f\xff@'
p4732
tp4733
bag3
(g4
(I0
tp4734
g6
tp4735
Rp4736
(I1
(tg12
I00
S'\x0b\xa2\x97\xf8\xe6\xd4\xff@'
p4737
tp4738
bag3
(g4
(I0
tp4739
g6
tp4740
Rp4741
(I1
(tg12
I00
S'r\xcf\xb8"\xf0\x01\x00A'
p4742
tp4743
bag3
(g4
(I0
tp4744
g6
tp4745
Rp4746
(I1
(tg12
I00
S'\x07~K\xa2\xfd\x11\x00A'
p4747
tp4748
bag3
(g4
(I0
tp4749
g6
tp4750
Rp4751
(I1
(tg12
I00
S'Mv!\xd1\x9e\x1d\x00A'
p4752
tp4753
bag3
(g4
(I0
tp4754
g6
tp4755
Rp4756
(I1
(tg12
I00
S"\xbf\xae/\x0e2'\x00A"
p4757
tp4758
bag3
(g4
(I0
tp4759
g6
tp4760
Rp4761
(I1
(tg12
I00
S'\xd9\xec/\xfa\xd60\x00A'
p4762
tp4763
bag3
(g4
(I0
tp4764
g6
tp4765
Rp4766
(I1
(tg12
I00
S'\xf8L\xb6\x0f@=\x00A'
p4767
tp4768
bag3
(g4
(I0
tp4769
g6
tp4770
Rp4771
(I1
(tg12
I00
S'!)\xd4\x1b\xd2L\x00A'
p4772
tp4773
bag3
(g4
(I0
tp4774
g6
tp4775
Rp4776
(I1
(tg12
I00
S'^8\\\xb7)^\x00A'
p4777
tp4778
bag3
(g4
(I0
tp4779
g6
tp4780
Rp4781
(I1
(tg12
I00
S'\x9c\x03\t\xb2%n\x00A'
p4782
tp4783
bag3
(g4
(I0
tp4784
g6
tp4785
Rp4786
(I1
(tg12
I00
S'\x9d\x01\xb34\xc0z\x00A'
p4787
tp4788
bag3
(g4
(I0
tp4789
g6
tp4790
Rp4791
(I1
(tg12
I00
S'&\x9e\xbfD\x83\x83\x00A'
p4792
tp4793
bag3
(g4
(I0
tp4794
g6
tp4795
Rp4796
(I1
(tg12
I00
S'\x83u\xaf\xb0\xe9\x89\x00A'
p4797
tp4798
bag3
(g4
(I0
tp4799
g6
tp4800
Rp4801
(I1
(tg12
I00
S'9\xcf\x94\xb9>\x90\x00A'
p4802
tp4803
bag3
(g4
(I0
tp4804
g6
tp4805
Rp4806
(I1
(tg12
I00
S'd\xdb\xd4\xde\xb1\x97\x00A'
p4807
tp4808
bag3
(g4
(I0
tp4809
g6
tp4810
Rp4811
(I1
(tg12
I00
S'\xd7i\xe6\x1b\x80\x9f\x00A'
p4812
tp4813
basS'pot_s'
p4814
(lp4815
g3
(g4
(I0
tp4816
g6
tp4817
Rp4818
(I1
(tg12
I00
S'\xf0\x9d\x11\xf3\xed\xd9TA'
p4819
tp4820
bag4818
ag4818
ag4818
ag4818
ag4818
ag4818
ag4818
ag4818
ag4818
ag4818
ag4818
ag4818
ag4818
ag4818
ag4818
ag4818
ag4818
ag4818
ag4818
ag4818
ag4818
ag4818
ag4818
ag4818
ag4818
ag4818
ag4818
ag4818
ag4818
ag4818
ag4818
ag4818
ag4818
ag4818
ag4818
ag4818
ag4818
ag4818
ag4818
ag4818
ag4818
ag4818
ag4818
ag4818
ag4818
ag4818
ag4818
ag4818
ag4818
ag4818
ag4818
ag4818
ag4818
ag4818
ag4818
ag4818
ag4818
ag4818
ag4818
ag4818
ag4818
ag4818
ag4818
ag4818
ag4818
ag4818
ag4818
ag4818
ag4818
ag4818
ag4818
ag4818
ag4818
ag4818
ag4818
ag4818
ag4818
ag4818
ag4818
ag4818
ag4818
ag4818
ag4818
ag4818
ag4818
ag4818
ag4818
ag4818
ag4818
ag4818
ag4818
ag4818
ag4818
ag4818
ag4818
ag4818
ag4818
ag4818
ag4818
ag4818
ag4818
ag4818
ag4818
ag4818
ag4818
ag4818
ag4818
ag4818
ag4818
ag4818
ag4818
ag4818
ag4818
ag4818
ag4818
ag4818
ag4818
ag4818
ag4818
ag4818
ag4818
ag4818
ag4818
ag4818
ag4818
ag4818
ag4818
ag4818
ag4818
ag4818
ag4818
ag4818
ag4818
ag4818
ag4818
ag4818
ag4818
ag4818
ag4818
ag4818
ag4818
ag4818
ag4818
ag4818
ag4818
ag4818
ag4818
ag4818
ag4818
ag4818
ag4818
ag4818
ag4818
ag4818
ag4818
ag4818
ag4818
ag4818
ag4818
ag4818
ag4818
ag4818
ag4818
ag4818
ag4818
ag4818
ag4818
ag4818
ag4818
ag4818
ag4818
ag4818
ag4818
ag4818
ag4818
ag4818
ag4818
ag4818
ag4818
ag4818
ag4818
ag4818
ag4818
ag4818
ag4818
ag4818
ag4818
ag4818
ag4818
ag4818
ag4818
ag4818
ag4818
ag4818
ag4818
ag4818
ag4818
ag4818
ag4818
ag4818
ag4818
ag4818
ag4818
ag4818
ag4818
ag4818
ag4818
ag4818
ag4818
ag4818
ag4818
ag4818
ag4818
ag4818
ag4818
ag4818
ag4818
ag4818
ag4818
ag4818
ag4818
ag4818
ag4818
ag4818
ag4818
ag4818
ag4818
ag4818
ag4818
ag4818
ag4818
ag4818
ag4818
ag4818
ag4818
ag4818
ag4818
ag4818
ag4818
ag4818
ag4818
ag4818
ag4818
ag4818
ag4818
ag4818
ag4818
ag4818
ag4818
ag4818
ag4818
ag4818
ag4818
ag4818
ag4818
ag4818
ag4818
ag4818
ag4818
ag4818
ag4818
ag4818
ag4818
ag4818
ag4818
ag4818
ag4818
ag4818
ag4818
ag4818
ag4818
ag4818
ag4818
ag4818
ag4818
ag4818
ag4818
ag4818
ag4818
ag4818
ag4818
ag4818
ag4818
ag4818
ag4818
ag4818
ag4818
ag4818
ag4818
ag4818
ag4818
ag4818
ag4818
ag4818
ag4818
ag4818
ag4818
ag4818
ag4818
ag4818
ag4818
ag4818
ag4818
ag4818
ag4818
ag4818
ag4818
ag4818
ag4818
ag4818
ag4818
ag4818
ag4818
ag4818
ag4818
ag4818
ag4818
ag4818
ag4818
ag4818
ag4818
ag4818
ag4818
ag4818
ag4818
ag4818
ag4818
ag4818
ag4818
ag4818
ag4818
ag4818
ag4818
ag4818
ag4818
ag4818
ag4818
ag4818
ag4818
ag4818
ag4818
ag4818
ag4818
ag4818
ag4818
ag4818
ag4818
ag4818
ag4818
ag4818
ag4818
ag4818
ag4818
ag4818
ag4818
ag4818
ag4818
ag4818
ag4818
ag4818
ag4818
ag4818
ag4818
ag4818
ag4818
ag4818
ag4818
ag4818
ag4818
ag4818
ag4818
ag4818
ag4818
ag4818
ag4818
ag4818
ag4818
ag4818
ag4818
ag4818
ag4818
ag4818
ag4818
ag4818
ag4818
ag4818
ag4818
ag4818
ag4818
ag4818
ag4818
ag4818
ag4818
ag4818
ag4818
ag4818
ag4818
ag4818
ag4818
ag4818
ag4818
ag4818
ag4818
ag4818
ag4818
ag4818
ag4818
ag4818
ag4818
ag4818
ag4818
ag4818
ag4818
ag4818
ag4818
ag4818
ag4818
ag4818
ag4818
ag4818
ag4818
ag4818
ag4818
ag4818
ag4818
ag4818
ag4818
ag4818
ag4818
ag4818
ag4818
ag4818
ag4818
ag4818
ag4818
ag4818
ag4818
ag4818
ag4818
ag4818
ag4818
ag4818
ag4818
ag4818
ag4818
ag4818
ag4818
ag4818
ag4818
ag4818
ag4818
ag4818
ag4818
ag4818
ag4818
ag4818
ag4818
ag4818
ag4818
ag4818
ag4818
ag4818
ag4818
ag4818
ag4818
ag4818
ag4818
ag4818
ag4818
ag4818
ag4818
ag4818
ag4818
ag4818
ag4818
ag4818
ag4818
ag4818
ag4818
as.